
boot:     file format a.out-zero-big


Disassembly of section .text:

00000000 <_start-0xa0000>:
       0:	46fc 2700      	movew #9984,%sr
       4:	41fa fffa      	lea %pc@(0 <PMAPOFF>),%a0
       8:	43f9 000a 0000 	lea a0000 <_start>,%a1
       e:	b3c8           	cmpal %a0,%a1
      10:	6710           	beqs 22 <CACR_CLEAR+0x1a>
      12:	203c 000b b614 	movel #767508,%d0
      18:	9089           	subl %a1,%d0
      1a:	e488           	lsrl #2,%d0
      1c:	22d8           	movel %a0@+,%a1@+
      1e:	51c8 fffc      	dbf %d0,1c <CACR_CLEAR+0x14>
      22:	70f2           	moveq #-14,%d0
      24:	4efb 021e      	jmp %pc@(44 <CACR_CLEAR+0x3c>,%d0:w:2)
      28:	7009           	moveq #9,%d0
      2a:	4e7b 0002      	movec %d0,%cacr
      2e:	7003           	moveq #3,%d0
      30:	23c0 000a 5da6 	movel %d0,a5da6 <_cpudelay>
      36:	4ef9 000a 003c 	jmp a003c <begin>
      3c:	207c 000a 7280 	moveal #684672,%a0
      42:	4298           	clrl %a0@+
      44:	b1fc 000b b614 	cmpal #767508,%a0
      4a:	6f00 fff6      	blew 42 <CACR_CLEAR+0x3a>
      4e:	4eb9 000a 15ca 	jsr a15ca <_setkcontext>
      54:	2079 0fef 003c 	moveal fef003c <_end+0xfe34a28>,%a0
      5a:	1010           	moveb %a0@,%d0
      5c:	c038 000f      	andb f <CACR_CLEAR+0x7>,%d0
      60:	0c00 0001      	cmpib #1,%d0
      64:	6700 0012      	beqw 78 <CACR_CLEAR+0x70>
      68:	0c00 0000      	cmpib #0,%d0
      6c:	6700 000a      	beqw 78 <CACR_CLEAR+0x70>
      70:	2079 0fef 0034 	moveal fef0034 <_end+0xfe34a20>,%a0
      76:	4e90           	jsr %a0@
      78:	42a7           	clrl %sp@-
      7a:	42a7           	clrl %sp@-
      7c:	4eb9 000a 0094 	jsr a0094 <_main>
      82:	504f           	addqw #8,%sp
      84:	4eb9 000a 115a 	jsr a115a <_exit>
      8a:	4e75           	rts
      8c:	206f 0004      	moveal %sp@(4),%a0
      90:	4ed0           	jmp %a0@
      92:	0000 4e56      	orib #86,%d0
      96:	ffe4           	.short 0xffe4
      98:	48d7 3cc0      	moveml %d6-%d7/%a2-%a5,%sp@
      9c:	4ab9 0fef 000c 	tstl fef000c <_end+0xfe349f8>
      a2:	6608           	bnes ac <CACR_CLEAR+0xa4>
      a4:	2a7c 0000 2000 	moveal #8192,%a5
      aa:	6008           	bras b4 <CACR_CLEAR+0xac>
      ac:	2079 0fef 000c 	moveal fef000c <_end+0xfe349f8>,%a0
      b2:	2a50           	moveal %a0@,%a5
      b4:	2855           	moveal %a5@,%a4
      b6:	2f2d 0004      	movel %a5@(4),%sp@-
      ba:	4eb9 000a 01cc 	jsr a01cc <_bootflags>
      c0:	584f           	addqw #4,%sp
      c2:	2e00           	movel %d0,%d7
      c4:	0800 0000      	btst #0,%d0
      c8:	666e           	bnes 138 <NUMPMEGS+0x38>
      ca:	264c           	moveal %a4,%a3
      cc:	247c 000a 7280 	moveal #684672,%a2
      d2:	6002           	bras d6 <CACR_CLEAR+0xce>
      d4:	14db           	moveb %a3@+,%a2@+
      d6:	4a13           	tstb %a3@
      d8:	66fa           	bnes d4 <CACR_CLEAR+0xcc>
      da:	267c 000a 7280 	moveal #684672,%a3
      e0:	4a13           	tstb %a3@
      e2:	660c           	bnes f0 <CACR_CLEAR+0xe8>
      e4:	4a13           	tstb %a3@
      e6:	6650           	bnes 138 <NUMPMEGS+0x38>
      e8:	247c 000a 5dda 	moveal #679386,%a2
      ee:	600a           	bras fa <CACR_CLEAR+0xf2>
      f0:	0c1b 0029      	cmpib #41,%a3@+
      f4:	66ea           	bnes e0 <CACR_CLEAR+0xd8>
      f6:	60ec           	bras e4 <CACR_CLEAR+0xdc>
      f8:	16da           	moveb %a2@+,%a3@+
      fa:	4a12           	tstb %a2@
      fc:	66fa           	bnes f8 <CACR_CLEAR+0xf0>
      fe:	4213           	clrb %a3@
     100:	6036           	bras 138 <NUMPMEGS+0x38>
     102:	4878 0001      	pea 1 <CACR_ENABLE>
     106:	2f06           	movel %d6,%sp@-
     108:	4eb9 000a 02f8 	jsr a02f8 <_readfile>
     10e:	504f           	addqw #8,%sp
     110:	2d40 fffc      	movel %d0,%fp@(-4)
     114:	0807 0000      	btst #0,%d7
     118:	660a           	bnes 124 <NUMPMEGS+0x24>
     11a:	2f00           	movel %d0,%sp@-
     11c:	4eb9 000a 008c 	jsr a008c <__exitto>
     122:	584f           	addqw #4,%sp
     124:	0cae ffff ffff 	cmpil #-1,%fp@(-4)
     12a:	fffc 
     12c:	670a           	beqs 138 <NUMPMEGS+0x38>
     12e:	4854           	pea %a4@
     130:	206e fffc      	moveal %fp@(-4),%a0
     134:	4e90           	jsr %a0@
     136:	584f           	addqw #4,%sp
     138:	0807 0000      	btst #0,%d7
     13c:	673c           	beqs 17a <RST+0x3e>
     13e:	4879 000a 5e28 	pea a5e28 <_bootf+0x1c>
     144:	2079 0fef 0084 	moveal fef0084 <_end+0xfe34a70>,%a0
     14a:	4e90           	jsr %a0@
     14c:	584f           	addqw #4,%sp
     14e:	4879 000a 7280 	pea a7280 <_edata>
     154:	4eb9 000a 1644 	jsr a1644 <_gets>
     15a:	584f           	addqw #4,%sp
     15c:	4a39 000a 7280 	tstb a7280 <_edata>
     162:	67d4           	beqs 138 <NUMPMEGS+0x38>
     164:	4855           	pea %a5@
     166:	2f07           	movel %d7,%sp@-
     168:	4879 000a 7280 	pea a7280 <_edata>
     16e:	4eb9 000a 023c 	jsr a023c <_parseparam>
     174:	4fef 000c      	lea %sp@(12),%sp
     178:	6016           	bras 190 <RST+0x54>
     17a:	4879 000a 7280 	pea a7280 <_edata>
     180:	4879 000a 5e2f 	pea a5e2f <_bootf+0x23>
     186:	2079 0fef 0084 	moveal fef0084 <_end+0xfe34a70>,%a0
     18c:	4e90           	jsr %a0@
     18e:	504f           	addqw #8,%sp
     190:	42a7           	clrl %sp@-
     192:	4879 000a 7280 	pea a7280 <_edata>
     198:	4eb9 000a 0eae 	jsr a0eae <_open>
     19e:	504f           	addqw #8,%sp
     1a0:	2c00           	movel %d0,%d6
     1a2:	6c00 ff5e      	bgew 102 <NUMPMEGS+0x2>
     1a6:	4879 000a 5e39 	pea a5e39 <_bootf+0x2d>
     1ac:	2079 0fef 0084 	moveal fef0084 <_end+0xfe34a70>,%a0
     1b2:	4e90           	jsr %a0@
     1b4:	584f           	addqw #4,%sp
     1b6:	0807 0000      	btst #0,%d7
     1ba:	6600 ff7c      	bnew 138 <NUMPMEGS+0x38>
     1be:	42a7           	clrl %sp@-
     1c0:	4eb9 000a 116c 	jsr a116c <__stop>
     1c6:	6000 ff6e      	braw 136 <NUMPMEGS+0x36>
     1ca:	4e75           	rts
     1cc:	4e56 fff4      	linkw %fp,#-12
     1d0:	48d7 20c0      	moveml %d6-%d7/%a5,%sp@
     1d4:	2a6e 0008      	moveal %fp@(8),%a5
     1d8:	7c00           	moveq #0,%d6
     1da:	0c1d 002d      	cmpib #45,%a5@+
     1de:	6650           	bnes 230 <RST+0xf4>
     1e0:	7e00           	moveq #0,%d7
     1e2:	6028           	bras 20c <RST+0xd0>
     1e4:	2007           	movel %d7,%d0
     1e6:	e580           	asll #2,%d0
     1e8:	41f9 000a 5e0c 	lea a5e0c <_bootf>,%a0
     1ee:	1215           	moveb %a5@,%d1
     1f0:	b230 0800      	cmpb %a0@(00000000,%d0:l),%d1
     1f4:	6614           	bnes 20a <RST+0xce>
     1f6:	2007           	movel %d7,%d0
     1f8:	e580           	asll #2,%d0
     1fa:	41f9 000a 5e0e 	lea a5e0e <_bootf+0x2>,%a0
     200:	3030 0800      	movew %a0@(00000000,%d0:l),%d0
     204:	48c0           	extl %d0
     206:	8c80           	orl %d0,%d6
     208:	6012           	bras 21c <RST+0xe0>
     20a:	5287           	addql #1,%d7
     20c:	2007           	movel %d7,%d0
     20e:	e580           	asll #2,%d0
     210:	41f9 000a 5e0c 	lea a5e0c <_bootf>,%a0
     216:	4a30 0800      	tstb %a0@(00000000,%d0:l)
     21a:	66c8           	bnes 1e4 <RST+0xa8>
     21c:	528d           	addql #1,%a5
     21e:	e587           	asll #2,%d7
     220:	41f9 000a 5e0c 	lea a5e0c <_bootf>,%a0
     226:	4a30 7800      	tstb %a0@(00000000,%d7:l)
     22a:	6704           	beqs 230 <RST+0xf4>
     22c:	4a15           	tstb %a5@
     22e:	66b0           	bnes 1e0 <RST+0xa4>
     230:	2006           	movel %d6,%d0
     232:	4cee 20c0 fff4 	moveml %fp@(-12),%d6-%d7/%a5
     238:	4e5e           	unlk %fp
     23a:	4e75           	rts
     23c:	4e56 ffec      	linkw %fp,#-20
     240:	48d7 38c0      	moveml %d6-%d7/%a3-%a5,%sp@
     244:	2a6e 0008      	moveal %fp@(8),%a5
     248:	286e 0010      	moveal %fp@(16),%a4
     24c:	7e00           	moveq #0,%d7
     24e:	47ec 0020      	lea %a4@(32),%a3
     252:	6030           	bras 284 <RST+0x148>
     254:	7c01           	moveq #1,%d6
     256:	be86           	cmpl %d6,%d7
     258:	6606           	bnes 260 <RST+0x124>
     25a:	421d           	clrb %a5@+
     25c:	6002           	bras 260 <RST+0x124>
     25e:	528d           	addql #1,%a5
     260:	0c15 0020      	cmpib #32,%a5@
     264:	67f8           	beqs 25e <RST+0x122>
     266:	4a15           	tstb %a5@
     268:	6712           	beqs 27c <RST+0x140>
     26a:	2007           	movel %d7,%d0
     26c:	e580           	asll #2,%d0
     26e:	298b 0800      	movel %a3,%a4@(00000000,%d0:l)
     272:	5287           	addql #1,%d7
     274:	6006           	bras 27c <RST+0x140>
     276:	4a15           	tstb %a5@
     278:	6708           	beqs 282 <RST+0x146>
     27a:	16dd           	moveb %a5@+,%a3@+
     27c:	0c15 0020      	cmpib #32,%a5@
     280:	66f4           	bnes 276 <RST+0x13a>
     282:	421b           	clrb %a3@+
     284:	4a15           	tstb %a5@
     286:	66cc           	bnes 254 <RST+0x118>
     288:	2007           	movel %d7,%d0
     28a:	e580           	asll #2,%d0
     28c:	42b4 0800      	clrl %a4@(00000000,%d0:l)
     290:	7c01           	moveq #1,%d6
     292:	be86           	cmpl %d6,%d7
     294:	6658           	bnes 2ee <RST+0x1b2>
     296:	4aae 000c      	tstl %fp@(12)
     29a:	6752           	beqs 2ee <RST+0x1b2>
     29c:	2007           	movel %d7,%d0
     29e:	e580           	asll #2,%d0
     2a0:	298b 0800      	movel %a3,%a4@(00000000,%d0:l)
     2a4:	5287           	addql #1,%d7
     2a6:	16fc 002d      	moveb #45,%a3@+
     2aa:	7c00           	moveq #0,%d6
     2ac:	6026           	bras 2d4 <RST+0x198>
     2ae:	2006           	movel %d6,%d0
     2b0:	e580           	asll #2,%d0
     2b2:	41f9 000a 5e0e 	lea a5e0e <_bootf+0x2>,%a0
     2b8:	3030 0800      	movew %a0@(00000000,%d0:l),%d0
     2bc:	48c0           	extl %d0
     2be:	c0ae 000c      	andl %fp@(12),%d0
     2c2:	670e           	beqs 2d2 <RST+0x196>
     2c4:	2006           	movel %d6,%d0
     2c6:	e580           	asll #2,%d0
     2c8:	41f9 000a 5e0c 	lea a5e0c <_bootf>,%a0
     2ce:	16f0 0800      	moveb %a0@(00000000,%d0:l),%a3@+
     2d2:	5286           	addql #1,%d6
     2d4:	2006           	movel %d6,%d0
     2d6:	e580           	asll #2,%d0
     2d8:	41f9 000a 5e0c 	lea a5e0c <_bootf>,%a0
     2de:	4a30 0800      	tstb %a0@(00000000,%d0:l)
     2e2:	66ca           	bnes 2ae <RST+0x172>
     2e4:	4213           	clrb %a3@
     2e6:	2007           	movel %d7,%d0
     2e8:	e580           	asll #2,%d0
     2ea:	42b4 0800      	clrl %a4@(00000000,%d0:l)
     2ee:	4cee 38c0 ffec 	moveml %fp@(-20),%d6-%d7/%a3-%a5
     2f4:	4e5e           	unlk %fp
     2f6:	4e75           	rts
     2f8:	4e56 ffc4      	linkw %fp,#-60
     2fc:	48d7 20fc      	moveml %d2-%d7/%a5,%sp@
     300:	2e2e 0008      	movel %fp@(8),%d7
     304:	7a00           	moveq #0,%d5
     306:	4878 0020      	pea 20 <CACR_CLEAR+0x18>
     30a:	486e ffe0      	pea %fp@(-32)
     30e:	2f07           	movel %d7,%sp@-
     310:	4eb9 000a 0b12 	jsr a0b12 <_read>
     316:	4fef 000c      	lea %sp@(12),%sp
     31a:	2c00           	movel %d0,%d6
     31c:	0c6e 010b ffe2 	cmpiw #267,%fp@(-30)
     322:	6708           	beqs 32c <RST+0x1f0>
     324:	0c6e 0108 ffe2 	cmpiw #264,%fp@(-30)
     32a:	6602           	bnes 32e <RST+0x1f2>
     32c:	7a01           	moveq #1,%d5
     32e:	7820           	moveq #32,%d4
     330:	bc84           	cmpl %d4,%d6
     332:	660c           	bnes 340 <RST+0x204>
     334:	4a85           	tstl %d5
     336:	6612           	bnes 34a <RST+0x20e>
     338:	0c6e 0107 ffe2 	cmpiw #263,%fp@(-30)
     33e:	670a           	beqs 34a <RST+0x20e>
     340:	4879 000a 5e48 	pea a5e48 <_bootf+0x3c>
     346:	6000 018e      	braw 4d6 <RST+0x39a>
     34a:	4aae 000c      	tstl %fp@(12)
     34e:	6714           	beqs 364 <RST+0x228>
     350:	2f2e ffe4      	movel %fp@(-28),%sp@-
     354:	4879 000a 5e58 	pea a5e58 <_bootf+0x4c>
     35a:	2079 0fef 0084 	moveal fef0084 <_end+0xfe34a70>,%a0
     360:	4e90           	jsr %a0@
     362:	504f           	addqw #8,%sp
     364:	242e ffe8      	movel %fp@(-24),%d2
     368:	4a85           	tstl %d5
     36a:	6608           	bnes 374 <RST+0x238>
     36c:	d5ae ffe4      	addl %d2,%fp@(-28)
     370:	42ae ffe8      	clrl %fp@(-24)
     374:	42a7           	clrl %sp@-
     376:	4a6e ffe0      	tstw %fp@(-32)
     37a:	661e           	bnes 39a <RST+0x25e>
     37c:	0c6e 010b ffe2 	cmpiw #267,%fp@(-30)
     382:	6622           	bnes 3a6 <RST+0x26a>
     384:	4a6e ffe0      	tstw %fp@(-32)
     388:	6608           	bnes 392 <RST+0x256>
     38a:	203c 0000 0800 	movel #2048,%d0
     390:	6016           	bras 3a8 <RST+0x26c>
     392:	203c 0000 2000 	movel #8192,%d0
     398:	600e           	bras 3a8 <RST+0x26c>
     39a:	0c6e 010b ffe2 	cmpiw #267,%fp@(-30)
     3a0:	6604           	bnes 3a6 <RST+0x26a>
     3a2:	7000           	moveq #0,%d0
     3a4:	6002           	bras 3a8 <RST+0x26c>
     3a6:	7020           	moveq #32,%d0
     3a8:	2f00           	movel %d0,%sp@-
     3aa:	2f07           	movel %d7,%sp@-
     3ac:	4eb9 000a 094e 	jsr a094e <_lseek>
     3b2:	4fef 000c      	lea %sp@(12),%sp
     3b6:	7cff           	moveq #-1,%d6
     3b8:	b086           	cmpl %d6,%d0
     3ba:	6700 0114      	beqw 4d0 <RST+0x394>
     3be:	2f2e ffe4      	movel %fp@(-28),%sp@-
     3c2:	4878 4000      	pea 4000 <SAVE+0x380>
     3c6:	2f07           	movel %d7,%sp@-
     3c8:	4eb9 000a 0b12 	jsr a0b12 <_read>
     3ce:	4fef 000c      	lea %sp@(12),%sp
     3d2:	b0ae ffe4      	cmpl %fp@(-28),%d0
     3d6:	6500 00f8      	bcsw 4d0 <RST+0x394>
     3da:	2a6e ffe4      	moveal %fp@(-28),%a5
     3de:	dbfc 0000 4000 	addal #16384,%a5
     3e4:	4a6e ffe0      	tstw %fp@(-32)
     3e8:	6608           	bnes 3f2 <RST+0x2b6>
     3ea:	263c 0000 8000 	movel #32768,%d3
     3f0:	6006           	bras 3f8 <RST+0x2bc>
     3f2:	263c 0002 0000 	movel #131072,%d3
     3f8:	4a85           	tstl %d5
     3fa:	670e           	beqs 40a <RST+0x2ce>
     3fc:	6002           	bras 400 <RST+0x2c4>
     3fe:	421d           	clrb %a5@+
     400:	2003           	movel %d3,%d0
     402:	5380           	subql #1,%d0
     404:	220d           	movel %a5,%d1
     406:	c081           	andl %d1,%d0
     408:	66f4           	bnes 3fe <RST+0x2c2>
     40a:	200d           	movel %a5,%d0
     40c:	d0ae ffe8      	addl %fp@(-24),%d0
     410:	0c80 000a 0000 	cmpil #655360,%d0
     416:	6314           	blss 42c <RST+0x2f0>
     418:	4879 000a 5e61 	pea a5e61 <_bootf+0x55>
     41e:	2079 0fef 0084 	moveal fef0084 <_end+0xfe34a70>,%a0
     424:	4e90           	jsr %a0@
     426:	584f           	addqw #4,%sp
     428:	6000 00a6      	braw 4d0 <RST+0x394>
     42c:	4aae 000c      	tstl %fp@(12)
     430:	6712           	beqs 444 <RST+0x308>
     432:	2f02           	movel %d2,%sp@-
     434:	4879 000a 5e84 	pea a5e84 <_bootf+0x78>
     43a:	2079 0fef 0084 	moveal fef0084 <_end+0xfe34a70>,%a0
     440:	4e90           	jsr %a0@
     442:	504f           	addqw #8,%sp
     444:	2f2e ffe8      	movel %fp@(-24),%sp@-
     448:	4855           	pea %a5@
     44a:	2f07           	movel %d7,%sp@-
     44c:	4eb9 000a 0b12 	jsr a0b12 <_read>
     452:	4fef 000c      	lea %sp@(12),%sp
     456:	b0ae ffe8      	cmpl %fp@(-24),%d0
     45a:	6574           	bcss 4d0 <RST+0x394>
     45c:	2f07           	movel %d7,%sp@-
     45e:	4eb9 000a 1106 	jsr a1106 <_close>
     464:	584f           	addqw #4,%sp
     466:	4aae 000c      	tstl %fp@(12)
     46a:	6714           	beqs 480 <RST+0x344>
     46c:	2f2e ffec      	movel %fp@(-20),%sp@-
     470:	4879 000a 5e88 	pea a5e88 <_bootf+0x7c>
     476:	2079 0fef 0084 	moveal fef0084 <_end+0xfe34a70>,%a0
     47c:	4e90           	jsr %a0@
     47e:	504f           	addqw #8,%sp
     480:	dbee ffe8      	addal %fp@(-24),%a5
     484:	7c00           	moveq #0,%d6
     486:	600c           	bras 494 <RST+0x358>
     488:	bbfc 000a 0000 	cmpal #655360,%a5
     48e:	640a           	bccs 49a <RST+0x35e>
     490:	421d           	clrb %a5@+
     492:	5286           	addql #1,%d6
     494:	bcae ffec      	cmpl %fp@(-20),%d6
     498:	65ee           	bcss 488 <RST+0x34c>
     49a:	4aae 000c      	tstl %fp@(12)
     49e:	6710           	beqs 4b0 <RST+0x374>
     4a0:	4879 000a 5e8c 	pea a5e8c <_bootf+0x80>
     4a6:	2079 0fef 0084 	moveal fef0084 <_end+0xfe34a70>,%a0
     4ac:	4e90           	jsr %a0@
     4ae:	584f           	addqw #4,%sp
     4b0:	4a6e ffe0      	tstw %fp@(-32)
     4b4:	6710           	beqs 4c6 <RST+0x38a>
     4b6:	0c6e 010b ffe2 	cmpiw #267,%fp@(-30)
     4bc:	6608           	bnes 4c6 <RST+0x38a>
     4be:	283c 0000 4020 	movel #16416,%d4
     4c4:	6006           	bras 4cc <RST+0x390>
     4c6:	283c 0000 4000 	movel #16384,%d4
     4cc:	2004           	movel %d4,%d0
     4ce:	6012           	bras 4e2 <RST+0x3a6>
     4d0:	4879 000a 5e94 	pea a5e94 <_bootf+0x88>
     4d6:	2079 0fef 0084 	moveal fef0084 <_end+0xfe34a70>,%a0
     4dc:	4e90           	jsr %a0@
     4de:	584f           	addqw #4,%sp
     4e0:	70ff           	moveq #-1,%d0
     4e2:	4cee 20fc ffc4 	moveml %fp@(-60),%d2-%d7/%a5
     4e8:	4e5e           	unlk %fp
     4ea:	4e75           	rts
     4ec:	4e56 fff4      	linkw %fp,#-12
     4f0:	48d7 3004      	moveml %d2/%a4-%a5,%sp@
     4f4:	2a6e 000c      	moveal %fp@(12),%a5
     4f8:	42ad 001a      	clrl %a5@(26)
     4fc:	202e 0008      	movel %fp@(8),%d0
     500:	222d 21bc      	movel %a5@(8636),%d1
     504:	4eb9 000a 16ca 	jsr a16ca <uldivt>
     50a:	2200           	movel %d0,%d1
     50c:	202d 21c0      	movel %a5@(8640),%d0
     510:	4eb9 000a 5ce0 	jsr a5ce0 <ulmult>
     516:	2400           	movel %d0,%d2
     518:	202e 0008      	movel %fp@(8),%d0
     51c:	222d 21bc      	movel %a5@(8636),%d1
     520:	4eb9 000a 16ca 	jsr a16ca <uldivt>
     526:	222d 2120      	movel %a5@(8480),%d1
     52a:	4681           	notl %d1
     52c:	c280           	andl %d0,%d1
     52e:	202d 211c      	movel %a5@(8476),%d0
     532:	4eb9 000a 5ce0 	jsr a5ce0 <ulmult>
     538:	d480           	addl %d0,%d2
     53a:	d4ad 2114      	addl %a5@(8468),%d2
     53e:	202e 0008      	movel %fp@(8),%d0
     542:	222d 21bc      	movel %a5@(8636),%d1
     546:	4eb9 000a 179c 	jsr a179c <ulmodt>
     54c:	222d 217c      	movel %a5@(8572),%d1
     550:	4eb9 000a 16ca 	jsr a16ca <uldivt>
     556:	222d 2164      	movel %a5@(8548),%d1
     55a:	e3a8           	lsll %d1,%d0
     55c:	d480           	addl %d0,%d2
     55e:	202d 2168      	movel %a5@(8552),%d0
     562:	e1a2           	asll %d0,%d2
     564:	2b42 001e      	movel %d2,%a5@(30)
     568:	2b6d 2134 0026 	movel %a5@(8500),%a5@(38)
     56e:	41ed 0104      	lea %a5@(260),%a0
     572:	2b48 0022      	movel %a0,%a5@(34)
     576:	4855           	pea %a5@
     578:	4eb9 000a 129c 	jsr a129c <_devread>
     57e:	584f           	addqw #4,%sp
     580:	49ed 0104      	lea %a5@(260),%a4
     584:	202e 0008      	movel %fp@(8),%d0
     588:	222d 217c      	movel %a5@(8572),%d1
     58c:	4eb9 000a 179c 	jsr a179c <ulmodt>
     592:	ef80           	asll #7,%d0
     594:	41f4 0800      	lea %a4@(00000000,%d0:l),%a0
     598:	701f           	moveq #31,%d0
     59a:	43ed 0084      	lea %a5@(132),%a1
     59e:	22d8           	movel %a0@+,%a1@+
     5a0:	51c8 fffc      	dbf %d0,59e <RST+0x462>
     5a4:	4cee 3004 fff4 	moveml %fp@(-12),%d2/%a4-%a5
     5aa:	4e5e           	unlk %fp
     5ac:	4e75           	rts
     5ae:	4e56 fff0      	linkw %fp,#-16
     5b2:	48d7 3000      	moveml %a4-%a5,%sp@
     5b6:	2a6e 0008      	moveal %fp@(8),%a5
     5ba:	220d           	movel %a5,%d1
     5bc:	6704           	beqs 5c2 <RST+0x486>
     5be:	4a15           	tstb %a5@
     5c0:	6616           	bnes 5d8 <RST+0x49c>
     5c2:	4879 000a 5ea8 	pea a5ea8 <_openfirst+0x4>
     5c8:	2079 0fef 0084 	moveal fef0084 <_end+0xfe34a70>,%a0
     5ce:	4e90           	jsr %a0@
     5d0:	584f           	addqw #4,%sp
     5d2:	7000           	moveq #0,%d0
     5d4:	6000 0082      	braw 658 <RST+0x51c>
     5d8:	2f2e 000c      	movel %fp@(12),%sp@-
     5dc:	4878 0002      	pea 2 <CACR_ENABLE+0x1>
     5e0:	4eb9 000a 04ec 	jsr a04ec <_openi>
     5e6:	504f           	addqw #8,%sp
     5e8:	601c           	bras 606 <RST+0x4ca>
     5ea:	4a2e ffff      	tstb %fp@(-1)
     5ee:	6764           	beqs 654 <RST+0x518>
     5f0:	2f2e 000c      	movel %fp@(12),%sp@-
     5f4:	2f2e fff8      	movel %fp@(-8),%sp@-
     5f8:	4eb9 000a 04ec 	jsr a04ec <_openi>
     5fe:	504f           	addqw #8,%sp
     600:	18ae ffff      	moveb %fp@(-1),%a4@
     604:	2a4c           	moveal %a4,%a5
     606:	4a15           	tstb %a5@
     608:	674a           	beqs 654 <RST+0x518>
     60a:	6002           	bras 60e <RST+0x4d2>
     60c:	528d           	addql #1,%a5
     60e:	0c15 002f      	cmpib #47,%a5@
     612:	67f8           	beqs 60c <RST+0x4d0>
     614:	284d           	moveal %a5,%a4
     616:	6006           	bras 61e <RST+0x4e2>
     618:	4a14           	tstb %a4@
     61a:	6708           	beqs 624 <RST+0x4e8>
     61c:	528c           	addql #1,%a4
     61e:	0c14 002f      	cmpib #47,%a4@
     622:	66f4           	bnes 618 <RST+0x4dc>
     624:	1d54 ffff      	moveb %a4@,%fp@(-1)
     628:	4214           	clrb %a4@
     62a:	2f2e 000c      	movel %fp@(12),%sp@-
     62e:	4855           	pea %a5@
     630:	4eb9 000a 07b8 	jsr a07b8 <_dlook>
     636:	504f           	addqw #8,%sp
     638:	2d40 fff8      	movel %d0,%fp@(-8)
     63c:	66ac           	bnes 5ea <RST+0x4ae>
     63e:	4855           	pea %a5@
     640:	4879 000a 5eb3 	pea a5eb3 <_openfirst+0xf>
     646:	2079 0fef 0084 	moveal fef0084 <_end+0xfe34a70>,%a0
     64c:	4e90           	jsr %a0@
     64e:	504f           	addqw #8,%sp
     650:	7000           	moveq #0,%d0
     652:	6004           	bras 658 <RST+0x51c>
     654:	202e fff8      	movel %fp@(-8),%d0
     658:	4cee 3000 fff0 	moveml %fp@(-16),%a4-%a5
     65e:	4e5e           	unlk %fp
     660:	4e75           	rts
     662:	4e56 ffe4      	linkw %fp,#-28
     666:	48d7 38f0      	moveml %d4-%d7/%a3-%a5,%sp@
     66a:	2a6e 0008      	moveal %fp@(8),%a5
     66e:	49ed 0036      	lea %a5@(54),%a4
     672:	0cae 0000 000c 	cmpil #12,%fp@(12)
     678:	000c 
     67a:	6c0e           	bges 68a <RST+0x54e>
     67c:	202e 000c      	movel %fp@(12),%d0
     680:	e580           	asll #2,%d0
     682:	2834 0876      	movel %a4@(00000076,%d0:l),%d4
     686:	6000 0124      	braw 7ac <RST+0x670>
     68a:	7a01           	moveq #1,%d5
     68c:	7e0c           	moveq #12,%d7
     68e:	9fae 000c      	subl %d7,%fp@(12)
     692:	7c03           	moveq #3,%d6
     694:	2005           	movel %d5,%d0
     696:	222d 2178      	movel %a5@(8568),%d1
     69a:	4eb9 000a 5cfe 	jsr a5cfe <lmult>
     6a0:	2a00           	movel %d0,%d5
     6a2:	baae 000c      	cmpl %fp@(12),%d5
     6a6:	6e0a           	bgts 6b2 <RST+0x576>
     6a8:	9bae 000c      	subl %d5,%fp@(12)
     6ac:	5386           	subql #1,%d6
     6ae:	4a86           	tstl %d6
     6b0:	6ee2           	bgts 694 <RST+0x558>
     6b2:	4a86           	tstl %d6
     6b4:	661a           	bnes 6d0 <RST+0x594>
     6b6:	2f2e 000c      	movel %fp@(12),%sp@-
     6ba:	4879 000a 5ec1 	pea a5ec1 <_openfirst+0x1d>
     6c0:	2079 0fef 0084 	moveal fef0084 <_end+0xfe34a70>,%a0
     6c6:	4e90           	jsr %a0@
     6c8:	504f           	addqw #8,%sp
     6ca:	7000           	moveq #0,%d0
     6cc:	6000 00e0      	braw 7ae <RST+0x672>
     6d0:	41ec 00a6      	lea %a4@(166),%a0
     6d4:	7003           	moveq #3,%d0
     6d6:	9086           	subl %d6,%d0
     6d8:	e580           	asll #2,%d0
     6da:	d1c0           	addal %d0,%a0
     6dc:	2810           	movel %a0@,%d4
     6de:	6600 00c4      	bnew 7a4 <RST+0x668>
     6e2:	2f2e 000c      	movel %fp@(12),%sp@-
     6e6:	4879 000a 5ecc 	pea a5ecc <_openfirst+0x28>
     6ec:	2079 0fef 0084 	moveal fef0084 <_end+0xfe34a70>,%a0
     6f2:	4e90           	jsr %a0@
     6f4:	504f           	addqw #8,%sp
     6f6:	7000           	moveq #0,%d0
     6f8:	6000 00b4      	braw 7ae <RST+0x672>
     6fc:	2006           	movel %d6,%d0
     6fe:	e580           	asll #2,%d0
     700:	41f9 000a 72e8 	lea a72e8 <_blknos>,%a0
     706:	b8b0 0800      	cmpl %a0@(00000000,%d0:l),%d4
     70a:	6744           	beqs 750 <RST+0x614>
     70c:	2004           	movel %d4,%d0
     70e:	222d 2168      	movel %a5@(8552),%d1
     712:	e3a0           	asll %d1,%d0
     714:	2b40 001e      	movel %d0,%a5@(30)
     718:	2006           	movel %d6,%d0
     71a:	720d           	moveq #13,%d1
     71c:	e3a0           	asll %d1,%d0
     71e:	0680 000a 72f8 	addil #684792,%d0
     724:	2b40 0022      	movel %d0,%a5@(34)
     728:	2b6d 2134 0026 	movel %a5@(8500),%a5@(38)
     72e:	4855           	pea %a5@
     730:	4eb9 000a 129c 	jsr a129c <_devread>
     736:	584f           	addqw #4,%sp
     738:	b0ad 0026      	cmpl %a5@(38),%d0
     73c:	6704           	beqs 742 <RST+0x606>
     73e:	7000           	moveq #0,%d0
     740:	606c           	bras 7ae <RST+0x672>
     742:	2006           	movel %d6,%d0
     744:	e580           	asll #2,%d0
     746:	41f9 000a 72e8 	lea a72e8 <_blknos>,%a0
     74c:	2184 0800      	movel %d4,%a0@(00000000,%d0:l)
     750:	2006           	movel %d6,%d0
     752:	720d           	moveq #13,%d1
     754:	e3a0           	asll %d1,%d0
     756:	0680 000a 72f8 	addil #684792,%d0
     75c:	2640           	moveal %d0,%a3
     75e:	2005           	movel %d5,%d0
     760:	222d 2178      	movel %a5@(8568),%d1
     764:	4eb9 000a 16d0 	jsr a16d0 <ldivt>
     76a:	2a00           	movel %d0,%d5
     76c:	202e 000c      	movel %fp@(12),%d0
     770:	2205           	movel %d5,%d1
     772:	4eb9 000a 16d0 	jsr a16d0 <ldivt>
     778:	222d 2178      	movel %a5@(8568),%d1
     77c:	4eb9 000a 17a2 	jsr a17a2 <lmodt>
     782:	e580           	asll #2,%d0
     784:	2833 0800      	movel %a3@(00000000,%d0:l),%d4
     788:	6618           	bnes 7a2 <RST+0x666>
     78a:	2f2e 000c      	movel %fp@(12),%sp@-
     78e:	4879 000a 5ed8 	pea a5ed8 <_openfirst+0x34>
     794:	2079 0fef 0084 	moveal fef0084 <_end+0xfe34a70>,%a0
     79a:	4e90           	jsr %a0@
     79c:	504f           	addqw #8,%sp
     79e:	7000           	moveq #0,%d0
     7a0:	600c           	bras 7ae <RST+0x672>
     7a2:	5286           	addql #1,%d6
     7a4:	7e03           	moveq #3,%d7
     7a6:	bc87           	cmpl %d7,%d6
     7a8:	6f00 ff52      	blew 6fc <RST+0x5c0>
     7ac:	2004           	movel %d4,%d0
     7ae:	4cee 38f0 ffe4 	moveml %fp@(-28),%d4-%d7/%a3-%a5
     7b4:	4e5e           	unlk %fp
     7b6:	4e75           	rts
     7b8:	4e56 ffe8      	linkw %fp,#-24
     7bc:	48d7 3880      	moveml %d7/%a3-%a5,%sp@
     7c0:	2a6e 000c      	moveal %fp@(12),%a5
     7c4:	47ed 0036      	lea %a5@(54),%a3
     7c8:	4aae 0008      	tstl %fp@(8)
     7cc:	6700 00c4      	beqw 892 <RST+0x756>
     7d0:	206e 0008      	moveal %fp@(8),%a0
     7d4:	4a10           	tstb %a0@
     7d6:	6700 00ba      	beqw 892 <RST+0x756>
     7da:	302b 004e      	movew %a3@(78),%d0
     7de:	0280 0000 f000 	andil #61440,%d0
     7e4:	0c80 0000 4000 	cmpil #16384,%d0
     7ea:	6714           	beqs 800 <RST+0x6c4>
     7ec:	4879 000a 5ee4 	pea a5ee4 <_openfirst+0x40>
     7f2:	2079 0fef 0084 	moveal fef0084 <_end+0xfe34a70>,%a0
     7f8:	4e90           	jsr %a0@
     7fa:	584f           	addqw #4,%sp
     7fc:	6000 0094      	braw 892 <RST+0x756>
     800:	4aab 005a      	tstl %a3@(90)
     804:	6612           	bnes 818 <RST+0x6dc>
     806:	4879 000a 5ef5 	pea a5ef5 <_openfirst+0x51>
     80c:	2079 0fef 0084 	moveal fef0084 <_end+0xfe34a70>,%a0
     812:	4e90           	jsr %a0@
     814:	584f           	addqw #4,%sp
     816:	607a           	bras 892 <RST+0x756>
     818:	2f2e 0008      	movel %fp@(8),%sp@-
     81c:	4eb9 000a 4fcc 	jsr a4fcc <_strlen>
     822:	584f           	addqw #4,%sp
     824:	2e00           	movel %d0,%d7
     826:	42ae fff8      	clrl %fp@(-8)
     82a:	2d4d fffc      	movel %a5,%fp@(-4)
     82e:	6050           	bras 880 <RST+0x744>
     830:	4a94           	tstl %a4@
     832:	674c           	beqs 880 <RST+0x744>
     834:	7000           	moveq #0,%d0
     836:	302c 0006      	movew %a4@(6),%d0
     83a:	b087           	cmpl %d7,%d0
     83c:	6618           	bnes 856 <RST+0x71a>
     83e:	486c 0008      	pea %a4@(8)
     842:	2f2e 0008      	movel %fp@(8),%sp@-
     846:	4eb9 000a 4f96 	jsr a4f96 <_strcmp>
     84c:	504f           	addqw #8,%sp
     84e:	4a80           	tstl %d0
     850:	6604           	bnes 856 <RST+0x71a>
     852:	2014           	movel %a4@,%d0
     854:	603e           	bras 894 <RST+0x758>
     856:	4879 000a 5f0c 	pea a5f0c <_openfirst+0x68>
     85c:	2f2e 0008      	movel %fp@(8),%sp@-
     860:	4eb9 000a 4f96 	jsr a4f96 <_strcmp>
     866:	504f           	addqw #8,%sp
     868:	4a80           	tstl %d0
     86a:	6614           	bnes 880 <RST+0x744>
     86c:	486c 0008      	pea %a4@(8)
     870:	4879 000a 5f0e 	pea a5f0e <_openfirst+0x6a>
     876:	2079 0fef 0084 	moveal fef0084 <_end+0xfe34a70>,%a0
     87c:	4e90           	jsr %a0@
     87e:	504f           	addqw #8,%sp
     880:	486e fff8      	pea %fp@(-8)
     884:	4eb9 000a 089e 	jsr a089e <_readdir>
     88a:	584f           	addqw #4,%sp
     88c:	2840           	moveal %d0,%a4
     88e:	220c           	movel %a4,%d1
     890:	669e           	bnes 830 <RST+0x6f4>
     892:	7000           	moveq #0,%d0
     894:	4cee 3880 ffe8 	moveml %fp@(-24),%d7/%a3-%a5
     89a:	4e5e           	unlk %fp
     89c:	4e75           	rts
     89e:	4e56 ffe8      	linkw %fp,#-24
     8a2:	48d7 38e0      	moveml %d5-%d7/%a3-%a5,%sp@
     8a6:	2a6e 0008      	moveal %fp@(8),%a5
     8aa:	266d 0004      	moveal %a5@(4),%a3
     8ae:	2015           	movel %a5@,%d0
     8b0:	b0ab 0090      	cmpl %a3@(144),%d0
     8b4:	6c74           	bges 92a <RST+0x7ee>
     8b6:	2a2b 214c      	movel %a3@(8524),%d5
     8ba:	4685           	notl %d5
     8bc:	ca95           	andl %a5@,%d5
     8be:	666e           	bnes 92e <RST+0x7f2>
     8c0:	2e15           	movel %a5@,%d7
     8c2:	222b 2154      	movel %a3@(8532),%d1
     8c6:	e2a7           	asrl %d1,%d7
     8c8:	2f07           	movel %d7,%sp@-
     8ca:	4853           	pea %a3@
     8cc:	6100 fd94      	bsrw 662 <RST+0x526>
     8d0:	504f           	addqw #8,%sp
     8d2:	2c00           	movel %d0,%d6
     8d4:	6754           	beqs 92a <RST+0x7ee>
     8d6:	222b 2168      	movel %a3@(8552),%d1
     8da:	e3a6           	asll %d1,%d6
     8dc:	2746 001e      	movel %d6,%a3@(30)
     8e0:	41eb 0104      	lea %a3@(260),%a0
     8e4:	2748 0022      	movel %a0,%a3@(34)
     8e8:	7c0c           	moveq #12,%d6
     8ea:	be86           	cmpl %d6,%d7
     8ec:	6c0e           	bges 8fc <RST+0x7c0>
     8ee:	5287           	addql #1,%d7
     8f0:	222b 2154      	movel %a3@(8532),%d1
     8f4:	e3a7           	asll %d1,%d7
     8f6:	beab 0090      	cmpl %a3@(144),%d7
     8fa:	6e06           	bgts 902 <RST+0x7c6>
     8fc:	202b 2134      	movel %a3@(8500),%d0
     900:	6014           	bras 916 <RST+0x7da>
     902:	202b 214c      	movel %a3@(8524),%d0
     906:	4680           	notl %d0
     908:	c0ab 0090      	andl %a3@(144),%d0
     90c:	d0ab 2138      	addl %a3@(8504),%d0
     910:	5380           	subql #1,%d0
     912:	c0ab 2150      	andl %a3@(8528),%d0
     916:	2740 0026      	movel %d0,%a3@(38)
     91a:	4853           	pea %a3@
     91c:	4eb9 000a 129c 	jsr a129c <_devread>
     922:	584f           	addqw #4,%sp
     924:	b0ab 0026      	cmpl %a3@(38),%d0
     928:	6704           	beqs 92e <RST+0x7f2>
     92a:	7000           	moveq #0,%d0
     92c:	6016           	bras 944 <RST+0x808>
     92e:	49eb 0104      	lea %a3@(260),%a4
     932:	d9c5           	addal %d5,%a4
     934:	7000           	moveq #0,%d0
     936:	302c 0004      	movew %a4@(4),%d0
     93a:	d195           	addl %d0,%a5@
     93c:	4a94           	tstl %a4@
     93e:	6700 ff6e      	beqw 8ae <RST+0x772>
     942:	200c           	movel %a4,%d0
     944:	4cee 38e0 ffe8 	moveml %fp@(-24),%d5-%d7/%a3-%a5
     94a:	4e5e           	unlk %fp
     94c:	4e75           	rts
     94e:	4e56 fff8      	linkw %fp,#-8
     952:	48d7 2080      	moveml %d7/%a5,%sp@
     956:	2e2e 000c      	movel %fp@(12),%d7
     95a:	57ae 0008      	subql #3,%fp@(8)
     95e:	4aae 0008      	tstl %fp@(8)
     962:	6d2a           	blts 98e <RST+0x852>
     964:	0cae 0000 0003 	cmpil #3,%fp@(8)
     96a:	0008 
     96c:	6c20           	bges 98e <RST+0x852>
     96e:	202e 0008      	movel %fp@(8),%d0
     972:	e580           	asll #2,%d0
     974:	2200           	movel %d0,%d1
     976:	ed81           	asll #6,%d1
     978:	d081           	addl %d1,%d0
     97a:	ed81           	asll #6,%d1
     97c:	d081           	addl %d1,%d0
     97e:	0680 000a f2f8 	addil #717560,%d0
     984:	2a40           	moveal %d0,%a5
     986:	2040           	moveal %d0,%a0
     988:	0810 0002      	btst #2,%a0@
     98c:	6604           	bnes 992 <RST+0x856>
     98e:	70ff           	moveq #-1,%d0
     990:	6020           	bras 9b2 <RST+0x876>
     992:	0215 ffef      	andib #-17,%a5@
     996:	2b47 001a      	movel %d7,%a5@(26)
     99a:	2007           	movel %d7,%d0
     99c:	6c06           	bges 9a4 <RST+0x868>
     99e:	0680 0000 01ff 	addil #511,%d0
     9a4:	e080           	asrl #8,%d0
     9a6:	e280           	asrl #1,%d0
     9a8:	2b40 001e      	movel %d0,%a5@(30)
     9ac:	42ad 0026      	clrl %a5@(38)
     9b0:	7000           	moveq #0,%d0
     9b2:	4cee 2080 fff8 	moveml %fp@(-8),%d7/%a5
     9b8:	4e5e           	unlk %fp
     9ba:	4e75           	rts
     9bc:	4e56 ffe0      	linkw %fp,#-32
     9c0:	48d7 38f8      	moveml %d3-%d7/%a3-%a5,%sp@
     9c4:	4aae 0008      	tstl %fp@(8)
     9c8:	6d14           	blts 9de <RST+0x8a2>
     9ca:	0cae 0000 0002 	cmpil #2,%fp@(8)
     9d0:	0008 
     9d2:	6e0a           	bgts 9de <RST+0x8a2>
     9d4:	4eb9 000a 15e4 	jsr a15e4 <_getchar>
     9da:	6000 012c      	braw b08 <RST+0x9cc>
     9de:	57ae 0008      	subql #3,%fp@(8)
     9e2:	4aae 0008      	tstl %fp@(8)
     9e6:	6d2a           	blts a12 <RST+0x8d6>
     9e8:	0cae 0000 0003 	cmpil #3,%fp@(8)
     9ee:	0008 
     9f0:	6c20           	bges a12 <RST+0x8d6>
     9f2:	202e 0008      	movel %fp@(8),%d0
     9f6:	e580           	asll #2,%d0
     9f8:	2200           	movel %d0,%d1
     9fa:	ed81           	asll #6,%d1
     9fc:	d081           	addl %d1,%d0
     9fe:	ed81           	asll #6,%d1
     a00:	d081           	addl %d1,%d0
     a02:	0680 000a f2f8 	addil #717560,%d0
     a08:	2a40           	moveal %d0,%a5
     a0a:	2040           	moveal %d0,%a0
     a0c:	0810 0002      	btst #2,%a0@
     a10:	6606           	bnes a18 <RST+0x8dc>
     a12:	70ff           	moveq #-1,%d0
     a14:	6000 00f2      	braw b08 <RST+0x9cc>
     a18:	266d 0022      	moveal %a5@(34),%a3
     a1c:	4aad 0026      	tstl %a5@(38)
     a20:	6e00 00d4      	bgtw af6 <RST+0x9ba>
     a24:	0815 0003      	btst #3,%a5@
     a28:	676c           	beqs a96 <RST+0x95a>
     a2a:	282d 0090      	movel %a5@(144),%d4
     a2e:	98ad 001a      	subl %a5@(26),%d4
     a32:	4a84           	tstl %d4
     a34:	6f00 0098      	blew ace <RST+0x992>
     a38:	49ed 2104      	lea %a5@(8452),%a4
     a3c:	262d 001a      	movel %a5@(26),%d3
     a40:	222c 0050      	movel %a4@(80),%d1
     a44:	e2a3           	asrl %d1,%d3
     a46:	2f03           	movel %d3,%sp@-
     a48:	4855           	pea %a5@
     a4a:	6100 fc16      	bsrw 662 <RST+0x526>
     a4e:	504f           	addqw #8,%sp
     a50:	222c 0064      	movel %a4@(100),%d1
     a54:	e3a0           	asll %d1,%d0
     a56:	2b40 001e      	movel %d0,%a5@(30)
     a5a:	2c2c 0048      	movel %a4@(72),%d6
     a5e:	4686           	notl %d6
     a60:	ccad 001a      	andl %a5@(26),%d6
     a64:	7e0c           	moveq #12,%d7
     a66:	b687           	cmpl %d7,%d3
     a68:	6c0e           	bges a78 <RST+0x93c>
     a6a:	5283           	addql #1,%d3
     a6c:	222c 0050      	movel %a4@(80),%d1
     a70:	e3a3           	asll %d1,%d3
     a72:	b6ad 0090      	cmpl %a5@(144),%d3
     a76:	6e06           	bgts a7e <RST+0x942>
     a78:	202c 0030      	movel %a4@(48),%d0
     a7c:	6014           	bras a92 <RST+0x956>
     a7e:	202c 0048      	movel %a4@(72),%d0
     a82:	4680           	notl %d0
     a84:	c0ad 0090      	andl %a5@(144),%d0
     a88:	d0ac 0034      	addl %a4@(52),%d0
     a8c:	5380           	subql #1,%d0
     a8e:	c0ac 004c      	andl %a4@(76),%d0
     a92:	2a00           	movel %d0,%d5
     a94:	601c           	bras ab2 <RST+0x976>
     a96:	202d 001a      	movel %a5@(26),%d0
     a9a:	6c06           	bges aa2 <RST+0x966>
     a9c:	0680 0000 01ff 	addil #511,%d0
     aa2:	e080           	asrl #8,%d0
     aa4:	e280           	asrl #1,%d0
     aa6:	2b40 001e      	movel %d0,%a5@(30)
     aaa:	7c00           	moveq #0,%d6
     aac:	2a3c 0000 0200 	movel #512,%d5
     ab2:	41ed 0104      	lea %a5@(260),%a0
     ab6:	2b48 0022      	movel %a0,%a5@(34)
     aba:	2b45 0026      	movel %d5,%a5@(38)
     abe:	4855           	pea %a5@
     ac0:	4eb9 000a 129c 	jsr a129c <_devread>
     ac6:	584f           	addqw #4,%sp
     ac8:	b0ad 0026      	cmpl %a5@(38),%d0
     acc:	6704           	beqs ad2 <RST+0x996>
     ace:	70ff           	moveq #-1,%d0
     ad0:	6036           	bras b08 <RST+0x9cc>
     ad2:	0815 0003      	btst #3,%a5@
     ad6:	6718           	beqs af0 <RST+0x9b4>
     ad8:	202d 001a      	movel %a5@(26),%d0
     adc:	9086           	subl %d6,%d0
     ade:	d085           	addl %d5,%d0
     ae0:	b0ad 0090      	cmpl %a5@(144),%d0
     ae4:	6d06           	blts aec <RST+0x9b0>
     ae6:	d886           	addl %d6,%d4
     ae8:	2b44 0026      	movel %d4,%a5@(38)
     aec:	9dad 0026      	subl %d6,%a5@(38)
     af0:	47ed 0104      	lea %a5@(260),%a3
     af4:	d7c6           	addal %d6,%a3
     af6:	53ad 0026      	subql #1,%a5@(38)
     afa:	52ad 001a      	addql #1,%a5@(26)
     afe:	101b           	moveb %a3@+,%d0
     b00:	4880           	extw %d0
     b02:	48c0           	extl %d0
     b04:	2b4b 0022      	movel %a3,%a5@(34)
     b08:	4cee 38f8 ffe0 	moveml %fp@(-32),%d3-%d7/%a3-%a5
     b0e:	4e5e           	unlk %fp
     b10:	4e75           	rts
     b12:	4e56 fff0      	linkw %fp,#-16
     b16:	48d7 30c0      	moveml %d6-%d7/%a4-%a5,%sp@
     b1a:	2a6e 000c      	moveal %fp@(12),%a5
     b1e:	4aae 0008      	tstl %fp@(8)
     b22:	6d2a           	blts b4e <RST+0xa12>
     b24:	0cae 0000 0002 	cmpil #2,%fp@(8)
     b2a:	0008 
     b2c:	6e20           	bgts b4e <RST+0xa12>
     b2e:	2e2e 0010      	movel %fp@(16),%d7
     b32:	4eb9 000a 15e4 	jsr a15e4 <_getchar>
     b38:	1a80           	moveb %d0,%a5@
     b3a:	5387           	subql #1,%d7
     b3c:	6706           	beqs b44 <RST+0xa08>
     b3e:	0c1d 000a      	cmpib #10,%a5@+
     b42:	66ee           	bnes b32 <RST+0x9f6>
     b44:	202e 0010      	movel %fp@(16),%d0
     b48:	9087           	subl %d7,%d0
     b4a:	6000 00ec      	braw c38 <RST+0xafc>
     b4e:	57ae 0008      	subql #3,%fp@(8)
     b52:	4aae 0008      	tstl %fp@(8)
     b56:	6d2a           	blts b82 <RST+0xa46>
     b58:	0cae 0000 0003 	cmpil #3,%fp@(8)
     b5e:	0008 
     b60:	6c20           	bges b82 <RST+0xa46>
     b62:	202e 0008      	movel %fp@(8),%d0
     b66:	e580           	asll #2,%d0
     b68:	2200           	movel %d0,%d1
     b6a:	ed81           	asll #6,%d1
     b6c:	d081           	addl %d1,%d0
     b6e:	ed81           	asll #6,%d1
     b70:	d081           	addl %d1,%d0
     b72:	0680 000a f2f8 	addil #717560,%d0
     b78:	2840           	moveal %d0,%a4
     b7a:	2040           	moveal %d0,%a0
     b7c:	0810 0002      	btst #2,%a0@
     b80:	6606           	bnes b88 <RST+0xa4c>
     b82:	70ff           	moveq #-1,%d0
     b84:	6000 00b2      	braw c38 <RST+0xafc>
     b88:	0814 0000      	btst #0,%a4@
     b8c:	67f4           	beqs b82 <RST+0xa46>
     b8e:	56ae 0008      	addql #3,%fp@(8)
     b92:	0814 0003      	btst #3,%a4@
     b96:	6636           	bnes bce <RST+0xa92>
     b98:	296e 0010 0026 	movel %fp@(16),%a4@(38)
     b9e:	294d 0022      	movel %a5,%a4@(34)
     ba2:	202c 001a      	movel %a4@(26),%d0
     ba6:	6c06           	bges bae <RST+0xa72>
     ba8:	0680 0000 01ff 	addil #511,%d0
     bae:	e080           	asrl #8,%d0
     bb0:	e280           	asrl #1,%d0
     bb2:	2940 001e      	movel %d0,%a4@(30)
     bb6:	4854           	pea %a4@
     bb8:	4eb9 000a 129c 	jsr a129c <_devread>
     bbe:	584f           	addqw #4,%sp
     bc0:	2e00           	movel %d0,%d7
     bc2:	202e 0010      	movel %fp@(16),%d0
     bc6:	d1ac 001a      	addl %d0,%a4@(26)
     bca:	2007           	movel %d7,%d0
     bcc:	606a           	bras c38 <RST+0xafc>
     bce:	202c 001a      	movel %a4@(26),%d0
     bd2:	d0ae 0010      	addl %fp@(16),%d0
     bd6:	b0ac 0090      	cmpl %a4@(144),%d0
     bda:	6f0c           	bles be8 <RST+0xaac>
     bdc:	202c 0090      	movel %a4@(144),%d0
     be0:	90ac 001a      	subl %a4@(26),%d0
     be4:	2d40 0010      	movel %d0,%fp@(16)
     be8:	2e2e 0010      	movel %fp@(16),%d7
     bec:	6e42           	bgts c30 <RST+0xaf4>
     bee:	7000           	moveq #0,%d0
     bf0:	6046           	bras c38 <RST+0xafc>
     bf2:	2c2c 0026      	movel %a4@(38),%d6
     bf6:	6e10           	bgts c08 <RST+0xacc>
     bf8:	2f2e 0008      	movel %fp@(8),%sp@-
     bfc:	6100 fdbe      	bsrw 9bc <RST+0x880>
     c00:	584f           	addqw #4,%sp
     c02:	1ac0           	moveb %d0,%a5@+
     c04:	5387           	subql #1,%d7
     c06:	6028           	bras c30 <RST+0xaf4>
     c08:	be86           	cmpl %d6,%d7
     c0a:	6c02           	bges c0e <RST+0xad2>
     c0c:	2c07           	movel %d7,%d6
     c0e:	2f06           	movel %d6,%sp@-
     c10:	4855           	pea %a5@
     c12:	2f2c 0022      	movel %a4@(34),%sp@-
     c16:	4eb9 000a 4f6a 	jsr a4f6a <_bcopy>
     c1c:	4fef 000c      	lea %sp@(12),%sp
     c20:	dbc6           	addal %d6,%a5
     c22:	ddac 0022      	addl %d6,%a4@(34)
     c26:	ddac 001a      	addl %d6,%a4@(26)
     c2a:	9dac 0026      	subl %d6,%a4@(38)
     c2e:	9e86           	subl %d6,%d7
     c30:	4a87           	tstl %d7
     c32:	6ebe           	bgts bf2 <RST+0xab6>
     c34:	202e 0010      	movel %fp@(16),%d0
     c38:	4cee 30c0 fff0 	moveml %fp@(-16),%d6-%d7/%a4-%a5
     c3e:	4e5e           	unlk %fp
     c40:	4e75           	rts
     c42:	4e56 fff8      	linkw %fp,#-8
     c46:	48d7 2080      	moveml %d7/%a5,%sp@
     c4a:	4aae 0008      	tstl %fp@(8)
     c4e:	6d3c           	blts c8c <RST+0xb50>
     c50:	0cae 0000 0002 	cmpil #2,%fp@(8)
     c56:	0008 
     c58:	6e32           	bgts c8c <RST+0xb50>
     c5a:	2e2e 0010      	movel %fp@(16),%d7
     c5e:	601a           	bras c7a <RST+0xb3e>
     c60:	206e 000c      	moveal %fp@(12),%a0
     c64:	52ae 000c      	addql #1,%fp@(12)
     c68:	1010           	moveb %a0@,%d0
     c6a:	4880           	extw %d0
     c6c:	48c0           	extl %d0
     c6e:	2f00           	movel %d0,%sp@-
     c70:	2079 0fef 0018 	moveal fef0018 <_end+0xfe34a04>,%a0
     c76:	4e90           	jsr %a0@
     c78:	584f           	addqw #4,%sp
     c7a:	51cf ffe4      	dbf %d7,c60 <RST+0xb24>
     c7e:	4247           	clrw %d7
     c80:	5387           	subql #1,%d7
     c82:	64dc           	bccs c60 <RST+0xb24>
     c84:	202e 0010      	movel %fp@(16),%d0
     c88:	6000 00a4      	braw d2e <RST+0xbf2>
     c8c:	57ae 0008      	subql #3,%fp@(8)
     c90:	4aae 0008      	tstl %fp@(8)
     c94:	6d2a           	blts cc0 <RST+0xb84>
     c96:	0cae 0000 0003 	cmpil #3,%fp@(8)
     c9c:	0008 
     c9e:	6c20           	bges cc0 <RST+0xb84>
     ca0:	202e 0008      	movel %fp@(8),%d0
     ca4:	e580           	asll #2,%d0
     ca6:	2200           	movel %d0,%d1
     ca8:	ed81           	asll #6,%d1
     caa:	d081           	addl %d1,%d0
     cac:	ed81           	asll #6,%d1
     cae:	d081           	addl %d1,%d0
     cb0:	0680 000a f2f8 	addil #717560,%d0
     cb6:	2a40           	moveal %d0,%a5
     cb8:	2040           	moveal %d0,%a0
     cba:	0810 0002      	btst #2,%a0@
     cbe:	6604           	bnes cc4 <RST+0xb88>
     cc0:	70ff           	moveq #-1,%d0
     cc2:	606a           	bras d2e <RST+0xbf2>
     cc4:	0815 0001      	btst #1,%a5@
     cc8:	67f6           	beqs cc0 <RST+0xb84>
     cca:	202e 0010      	movel %fp@(16),%d0
     cce:	2200           	movel %d0,%d1
     cd0:	6c02           	bges cd4 <RST+0xb98>
     cd2:	4480           	negl %d0
     cd4:	0280 0000 01ff 	andil #511,%d0
     cda:	4a81           	tstl %d1
     cdc:	6c02           	bges ce0 <RST+0xba4>
     cde:	4480           	negl %d0
     ce0:	4a80           	tstl %d0
     ce2:	6714           	beqs cf8 <RST+0xbbc>
     ce4:	2f2e 0010      	movel %fp@(16),%sp@-
     ce8:	4879 000a 5f12 	pea a5f12 <_openfirst+0x6e>
     cee:	2079 0fef 0084 	moveal fef0084 <_end+0xfe34a70>,%a0
     cf4:	4e90           	jsr %a0@
     cf6:	504f           	addqw #8,%sp
     cf8:	2b6e 0010 0026 	movel %fp@(16),%a5@(38)
     cfe:	2b6e 000c 0022 	movel %fp@(12),%a5@(34)
     d04:	202d 001a      	movel %a5@(26),%d0
     d08:	6c06           	bges d10 <RST+0xbd4>
     d0a:	0680 0000 01ff 	addil #511,%d0
     d10:	e080           	asrl #8,%d0
     d12:	e280           	asrl #1,%d0
     d14:	2b40 001e      	movel %d0,%a5@(30)
     d18:	4855           	pea %a5@
     d1a:	4eb9 000a 12b4 	jsr a12b4 <_devwrite>
     d20:	584f           	addqw #4,%sp
     d22:	2e00           	movel %d0,%d7
     d24:	202e 0010      	movel %fp@(16),%d0
     d28:	d1ad 001a      	addl %d0,%a5@(26)
     d2c:	2007           	movel %d7,%d0
     d2e:	4cee 2080 fff8 	moveml %fp@(-8),%d7/%a5
     d34:	4e5e           	unlk %fp
     d36:	4e75           	rts
     d38:	4e56 fff4      	linkw %fp,#-12
     d3c:	48d7 3000      	moveml %a4-%a5,%sp@
     d40:	2a6e 0008      	moveal %fp@(8),%a5
     d44:	4eb9 000a 0da0 	jsr a0da0 <_getiob>
     d4a:	2d40 fffc      	movel %d0,%fp@(-4)
     d4e:	e580           	asll #2,%d0
     d50:	2200           	movel %d0,%d1
     d52:	ed81           	asll #6,%d1
     d54:	d081           	addl %d1,%d0
     d56:	ed81           	asll #6,%d1
     d58:	d081           	addl %d1,%d0
     d5a:	0680 000a f2f8 	addil #717560,%d0
     d60:	2840           	moveal %d0,%a4
     d62:	296d 0096 0002 	movel %a5@(150),%a4@(2)
     d68:	296d 0086 000a 	movel %a5@(134),%a4@(10)
     d6e:	296d 008a 000e 	movel %a5@(138),%a4@(14)
     d74:	296d 008e 0012 	movel %a5@(142),%a4@(18)
     d7a:	426c 0066      	clrw %a4@(102)
     d7e:	2f2e 0010      	movel %fp@(16),%sp@-
     d82:	2f2e 000c      	movel %fp@(12),%sp@-
     d86:	4854           	pea %a4@
     d88:	2f2e fffc      	movel %fp@(-4),%sp@-
     d8c:	4eb9 000a 0fec 	jsr a0fec <_openfile>
     d92:	4fef 0010      	lea %sp@(16),%sp
     d96:	4cee 3000 fff4 	moveml %fp@(-12),%a4-%a5
     d9c:	4e5e           	unlk %fp
     d9e:	4e75           	rts
     da0:	4e56 fffc      	linkw %fp,#-4
     da4:	2e87           	movel %d7,%sp@
     da6:	4ab9 000a 5ea4 	tstl a5ea4 <_openfirst>
     dac:	6728           	beqs dd6 <RST+0xc9a>
     dae:	42b9 000a 5ea4 	clrl a5ea4 <_openfirst>
     db4:	7e00           	moveq #0,%d7
     db6:	2007           	movel %d7,%d0
     db8:	e580           	asll #2,%d0
     dba:	2200           	movel %d0,%d1
     dbc:	ed81           	asll #6,%d1
     dbe:	d081           	addl %d1,%d0
     dc0:	ed81           	asll #6,%d1
     dc2:	d081           	addl %d1,%d0
     dc4:	41f9 000a f2f8 	lea af2f8 <_iob>,%a0
     dca:	4230 0800      	clrb %a0@(00000000,%d0:l)
     dce:	5287           	addql #1,%d7
     dd0:	7203           	moveq #3,%d1
     dd2:	be81           	cmpl %d1,%d7
     dd4:	6de0           	blts db6 <RST+0xc7a>
     dd6:	7e00           	moveq #0,%d7
     dd8:	2007           	movel %d7,%d0
     dda:	e580           	asll #2,%d0
     ddc:	2200           	movel %d0,%d1
     dde:	ed81           	asll #6,%d1
     de0:	d081           	addl %d1,%d0
     de2:	ed81           	asll #6,%d1
     de4:	d081           	addl %d1,%d0
     de6:	41f9 000a f2f8 	lea af2f8 <_iob>,%a0
     dec:	4a30 0800      	tstb %a0@(00000000,%d0:l)
     df0:	6716           	beqs e08 <RST+0xccc>
     df2:	5287           	addql #1,%d7
     df4:	7203           	moveq #3,%d1
     df6:	be81           	cmpl %d1,%d7
     df8:	6dde           	blts dd8 <RST+0xc9c>
     dfa:	4879 000a 5f1d 	pea a5f1d <_openfirst+0x79>
     e00:	4eb9 000a 116c 	jsr a116c <__stop>
     e06:	584f           	addqw #4,%sp
     e08:	2007           	movel %d7,%d0
     e0a:	e580           	asll #2,%d0
     e0c:	2200           	movel %d0,%d1
     e0e:	ed81           	asll #6,%d1
     e10:	d081           	addl %d1,%d0
     e12:	ed81           	asll #6,%d1
     e14:	d081           	addl %d1,%d0
     e16:	41f9 000a f2f8 	lea af2f8 <_iob>,%a0
     e1c:	0030 0004 0800 	orib #4,%a0@(00000000,%d0:l)
     e22:	2007           	movel %d7,%d0
     e24:	2e2e fffc      	movel %fp@(-4),%d7
     e28:	4e5e           	unlk %fp
     e2a:	4e75           	rts
     e2c:	4e56 fff8      	linkw %fp,#-8
     e30:	48d7 2080      	moveml %d7/%a5,%sp@
     e34:	2a6e 0008      	moveal %fp@(8),%a5
     e38:	7e00           	moveq #0,%d7
     e3a:	6054           	bras e90 <RST+0xd54>
     e3c:	0c15 0030      	cmpib #48,%a5@
     e40:	6d14           	blts e56 <RST+0xd1a>
     e42:	0c15 0039      	cmpib #57,%a5@
     e46:	6e0e           	bgts e56 <RST+0xd1a>
     e48:	2007           	movel %d7,%d0
     e4a:	e980           	asll #4,%d0
     e4c:	1215           	moveb %a5@,%d1
     e4e:	4881           	extw %d1
     e50:	48c1           	extl %d1
     e52:	7e30           	moveq #48,%d7
     e54:	6032           	bras e88 <RST+0xd4c>
     e56:	0c15 0061      	cmpib #97,%a5@
     e5a:	6d14           	blts e70 <RST+0xd34>
     e5c:	0c15 0066      	cmpib #102,%a5@
     e60:	6e0e           	bgts e70 <RST+0xd34>
     e62:	2007           	movel %d7,%d0
     e64:	e980           	asll #4,%d0
     e66:	1215           	moveb %a5@,%d1
     e68:	4881           	extw %d1
     e6a:	48c1           	extl %d1
     e6c:	7e57           	moveq #87,%d7
     e6e:	6018           	bras e88 <RST+0xd4c>
     e70:	0c15 0041      	cmpib #65,%a5@
     e74:	6d1e           	blts e94 <RST+0xd58>
     e76:	0c15 0046      	cmpib #70,%a5@
     e7a:	6e18           	bgts e94 <RST+0xd58>
     e7c:	2007           	movel %d7,%d0
     e7e:	e980           	asll #4,%d0
     e80:	1215           	moveb %a5@,%d1
     e82:	4881           	extw %d1
     e84:	48c1           	extl %d1
     e86:	7e37           	moveq #55,%d7
     e88:	9287           	subl %d7,%d1
     e8a:	d081           	addl %d1,%d0
     e8c:	2e00           	movel %d0,%d7
     e8e:	528d           	addql #1,%a5
     e90:	4a15           	tstb %a5@
     e92:	66a8           	bnes e3c <RST+0xd00>
     e94:	0c15 002c      	cmpib #44,%a5@
     e98:	6602           	bnes e9c <RST+0xd60>
     e9a:	528d           	addql #1,%a5
     e9c:	206e 000c      	moveal %fp@(12),%a0
     ea0:	2087           	movel %d7,%a0@
     ea2:	200d           	movel %a5,%d0
     ea4:	4cee 2080 fff8 	moveml %fp@(-8),%d7/%a5
     eaa:	4e5e           	unlk %fp
     eac:	4e75           	rts
     eae:	4e56 ffec      	linkw %fp,#-20
     eb2:	48d7 3c00      	moveml %a2-%a5,%sp@
     eb6:	6100 fee8      	bsrw da0 <RST+0xc64>
     eba:	2d40 fffc      	movel %d0,%fp@(-4)
     ebe:	e580           	asll #2,%d0
     ec0:	2200           	movel %d0,%d1
     ec2:	ed81           	asll #6,%d1
     ec4:	d081           	addl %d1,%d0
     ec6:	ed81           	asll #6,%d1
     ec8:	d081           	addl %d1,%d0
     eca:	0680 000a f2f8 	addil #717560,%d0
     ed0:	2840           	moveal %d0,%a4
     ed2:	2a6e 0008      	moveal %fp@(8),%a5
     ed6:	6008           	bras ee0 <RST+0xda4>
     ed8:	0c15 0028      	cmpib #40,%a5@
     edc:	6706           	beqs ee4 <RST+0xda8>
     ede:	528d           	addql #1,%a5
     ee0:	4a15           	tstb %a5@
     ee2:	66f4           	bnes ed8 <RST+0xd9c>
     ee4:	0c1d 0028      	cmpib #40,%a5@+
     ee8:	6706           	beqs ef0 <RST+0xdb4>
     eea:	4214           	clrb %a4@
     eec:	6000 00be      	braw fac <RST+0xe70>
     ef0:	247c 000a 5fee 	moveal #679918,%a2
     ef6:	6016           	bras f0e <RST+0xdd2>
     ef8:	206e 0008      	moveal %fp@(8),%a0
     efc:	1010           	moveb %a0@,%d0
     efe:	b013           	cmpb %a3@,%d0
     f00:	660a           	bnes f0c <RST+0xdd0>
     f02:	1028 0001      	moveb %a0@(1),%d0
     f06:	b02b 0001      	cmpb %a3@(1),%d0
     f0a:	675a           	beqs f66 <RST+0xe2a>
     f0c:	588a           	addql #4,%a2
     f0e:	2652           	moveal %a2@,%a3
     f10:	220b           	movel %a3,%d1
     f12:	66e4           	bnes ef8 <RST+0xdbc>
     f14:	206e 0008      	moveal %fp@(8),%a0
     f18:	1028 0001      	moveb %a0@(1),%d0
     f1c:	4880           	extw %d0
     f1e:	48c0           	extl %d0
     f20:	2f00           	movel %d0,%sp@-
     f22:	1010           	moveb %a0@,%d0
     f24:	4880           	extw %d0
     f26:	48c0           	extl %d0
     f28:	2f00           	movel %d0,%sp@-
     f2a:	4879 000a 5f30 	pea a5f30 <_openfirst+0x8c>
     f30:	2079 0fef 0084 	moveal fef0084 <_end+0xfe34a70>,%a0
     f36:	4e90           	jsr %a0@
     f38:	4fef 000c      	lea %sp@(12),%sp
     f3c:	247c 000a 5fee 	moveal #679918,%a2
     f42:	6016           	bras f5a <RST+0xe1e>
     f44:	2f2b 0016      	movel %a3@(22),%sp@-
     f48:	4879 000a 5f56 	pea a5f56 <_openfirst+0xb2>
     f4e:	2079 0fef 0084 	moveal fef0084 <_end+0xfe34a70>,%a0
     f54:	4e90           	jsr %a0@
     f56:	504f           	addqw #8,%sp
     f58:	588a           	addql #4,%a2
     f5a:	2652           	moveal %a2@,%a3
     f5c:	220b           	movel %a3,%d1
     f5e:	66e4           	bnes f44 <RST+0xe08>
     f60:	4214           	clrb %a4@
     f62:	70ff           	moveq #-1,%d0
     f64:	607c           	bras fe2 <RST+0xea6>
     f66:	294b 0002      	movel %a3,%a4@(2)
     f6a:	200a           	movel %a2,%d0
     f6c:	0480 000a 5fee 	subil #679918,%d0
     f72:	e480           	asrl #2,%d0
     f74:	3940 0066      	movew %d0,%a4@(102)
     f78:	486c 000a      	pea %a4@(10)
     f7c:	4855           	pea %a5@
     f7e:	6100 feac      	bsrw e2c <RST+0xcf0>
     f82:	504f           	addqw #8,%sp
     f84:	2a40           	moveal %d0,%a5
     f86:	486c 000e      	pea %a4@(14)
     f8a:	4855           	pea %a5@
     f8c:	6100 fe9e      	bsrw e2c <RST+0xcf0>
     f90:	504f           	addqw #8,%sp
     f92:	2a40           	moveal %d0,%a5
     f94:	486c 0012      	pea %a4@(18)
     f98:	4855           	pea %a5@
     f9a:	6100 fe90      	bsrw e2c <RST+0xcf0>
     f9e:	504f           	addqw #8,%sp
     fa0:	2a40           	moveal %d0,%a5
     fa2:	4a15           	tstb %a5@
     fa4:	6726           	beqs fcc <RST+0xe90>
     fa6:	0c15 0029      	cmpib #41,%a5@
     faa:	6718           	beqs fc4 <RST+0xe88>
     fac:	2f2e 0008      	movel %fp@(8),%sp@-
     fb0:	4879 000a 5f5c 	pea a5f5c <_openfirst+0xb8>
     fb6:	2079 0fef 0084 	moveal fef0084 <_end+0xfe34a70>,%a0
     fbc:	4e90           	jsr %a0@
     fbe:	504f           	addqw #8,%sp
     fc0:	70ff           	moveq #-1,%d0
     fc2:	601e           	bras fe2 <RST+0xea6>
     fc4:	528d           	addql #1,%a5
     fc6:	0c15 0020      	cmpib #32,%a5@
     fca:	67f8           	beqs fc4 <RST+0xe88>
     fcc:	2f2e 000c      	movel %fp@(12),%sp@-
     fd0:	4855           	pea %a5@
     fd2:	4854           	pea %a4@
     fd4:	2f2e fffc      	movel %fp@(-4),%sp@-
     fd8:	4eb9 000a 0fec 	jsr a0fec <_openfile>
     fde:	4fef 0010      	lea %sp@(16),%sp
     fe2:	4cee 3c00 ffec 	moveml %fp@(-20),%a2-%a5
     fe8:	4e5e           	unlk %fp
     fea:	4e75           	rts
     fec:	4e56 fffc      	linkw %fp,#-4
     ff0:	2f2e 000c      	movel %fp@(12),%sp@-
     ff4:	4eb9 000a 12cc 	jsr a12cc <_devopen>
     ffa:	584f           	addqw #4,%sp
     ffc:	4a80           	tstl %d0
     ffe:	6600 00a2      	bnew 10a2 <RST+0xf66>
    1002:	206e 0010      	moveal %fp@(16),%a0
    1006:	4a10           	tstb %a0@
    1008:	6620           	bnes 102a <RST+0xeee>
    100a:	206e 000c      	moveal %fp@(12),%a0
    100e:	202e 0014      	movel %fp@(20),%d0
    1012:	5280           	addql #1,%d0
    1014:	8110           	orb %d0,%a0@
    1016:	206e 000c      	moveal %fp@(12),%a0
    101a:	42a8 0026      	clrl %a0@(38)
    101e:	206e 000c      	moveal %fp@(12),%a0
    1022:	42a8 001a      	clrl %a0@(26)
    1026:	6000 00d4      	braw 10fc <RST+0xfc0>
    102a:	206e 000c      	moveal %fp@(12),%a0
    102e:	2008           	movel %a0,%d0
    1030:	0680 0000 2104 	addil #8452,%d0
    1036:	2140 0022      	movel %d0,%a0@(34)
    103a:	206e 000c      	moveal %fp@(12),%a0
    103e:	217c 0000 2000 	movel #8192,%a0@(38)
    1044:	0026 
    1046:	206e 000c      	moveal %fp@(12),%a0
    104a:	7210           	moveq #16,%d1
    104c:	2141 001e      	movel %d1,%a0@(30)
    1050:	206e 000c      	moveal %fp@(12),%a0
    1054:	42a8 001a      	clrl %a0@(26)
    1058:	2f2e 000c      	movel %fp@(12),%sp@-
    105c:	4eb9 000a 129c 	jsr a129c <_devread>
    1062:	584f           	addqw #4,%sp
    1064:	0c80 0000 2000 	cmpil #8192,%d0
    106a:	6636           	bnes 10a2 <RST+0xf66>
    106c:	206e 000c      	moveal %fp@(12),%a0
    1070:	0ca8 0001 1954 	cmpil #72020,%a0@(9824)
    1076:	2660 
    1078:	6714           	beqs 108e <RST+0xf52>
    107a:	4879 000a 5f89 	pea a5f89 <_openfirst+0xe5>
    1080:	2079 0fef 0084 	moveal fef0084 <_end+0xfe34a70>,%a0
    1086:	4e90           	jsr %a0@
    1088:	584f           	addqw #4,%sp
    108a:	70ff           	moveq #-1,%d0
    108c:	6074           	bras 1102 <RST+0xfc6>
    108e:	2f2e 000c      	movel %fp@(12),%sp@-
    1092:	2f2e 0010      	movel %fp@(16),%sp@-
    1096:	6100 f516      	bsrw 5ae <RST+0x472>
    109a:	504f           	addqw #8,%sp
    109c:	2d40 fffc      	movel %d0,%fp@(-4)
    10a0:	660a           	bnes 10ac <RST+0xf70>
    10a2:	206e 000c      	moveal %fp@(12),%a0
    10a6:	4210           	clrb %a0@
    10a8:	70ff           	moveq #-1,%d0
    10aa:	6056           	bras 1102 <RST+0xfc6>
    10ac:	4aae 0014      	tstl %fp@(20)
    10b0:	671a           	beqs 10cc <RST+0xf90>
    10b2:	4879 000a 5f9c 	pea a5f9c <_openfirst+0xf8>
    10b8:	2079 0fef 0084 	moveal fef0084 <_end+0xfe34a70>,%a0
    10be:	4e90           	jsr %a0@
    10c0:	584f           	addqw #4,%sp
    10c2:	206e 000c      	moveal %fp@(12),%a0
    10c6:	4210           	clrb %a0@
    10c8:	70ff           	moveq #-1,%d0
    10ca:	6036           	bras 1102 <RST+0xfc6>
    10cc:	2f2e 000c      	movel %fp@(12),%sp@-
    10d0:	2f2e fffc      	movel %fp@(-4),%sp@-
    10d4:	4eb9 000a 04ec 	jsr a04ec <_openi>
    10da:	504f           	addqw #8,%sp
    10dc:	206e 000c      	moveal %fp@(12),%a0
    10e0:	42a8 001a      	clrl %a0@(26)
    10e4:	206e 000c      	moveal %fp@(12),%a0
    10e8:	42a8 0026      	clrl %a0@(38)
    10ec:	206e 000c      	moveal %fp@(12),%a0
    10f0:	202e 0014      	movel %fp@(20),%d0
    10f4:	5280           	addql #1,%d0
    10f6:	0000 0008      	orib #8,%d0
    10fa:	8110           	orb %d0,%a0@
    10fc:	202e 0008      	movel %fp@(8),%d0
    1100:	5680           	addql #3,%d0
    1102:	4e5e           	unlk %fp
    1104:	4e75           	rts
    1106:	4e56 fffc      	linkw %fp,#-4
    110a:	2e8d           	movel %a5,%sp@
    110c:	57ae 0008      	subql #3,%fp@(8)
    1110:	4aae 0008      	tstl %fp@(8)
    1114:	6d2a           	blts 1140 <RST+0x1004>
    1116:	0cae 0000 0003 	cmpil #3,%fp@(8)
    111c:	0008 
    111e:	6c20           	bges 1140 <RST+0x1004>
    1120:	202e 0008      	movel %fp@(8),%d0
    1124:	e580           	asll #2,%d0
    1126:	2200           	movel %d0,%d1
    1128:	ed81           	asll #6,%d1
    112a:	d081           	addl %d1,%d0
    112c:	ed81           	asll #6,%d1
    112e:	d081           	addl %d1,%d0
    1130:	0680 000a f2f8 	addil #717560,%d0
    1136:	2a40           	moveal %d0,%a5
    1138:	2040           	moveal %d0,%a0
    113a:	0810 0002      	btst #2,%a0@
    113e:	6604           	bnes 1144 <RST+0x1008>
    1140:	70ff           	moveq #-1,%d0
    1142:	600e           	bras 1152 <RST+0x1016>
    1144:	4855           	pea %a5@
    1146:	4eb9 000a 1394 	jsr a1394 <_devclose>
    114c:	584f           	addqw #4,%sp
    114e:	4215           	clrb %a5@
    1150:	7000           	moveq #0,%d0
    1152:	2a6e fffc      	moveal %fp@(-4),%a5
    1156:	4e5e           	unlk %fp
    1158:	4e75           	rts
    115a:	4e56 0000      	linkw %fp,#0
    115e:	42a7           	clrl %sp@-
    1160:	4eb9 000a 116c 	jsr a116c <__stop>
    1166:	584f           	addqw #4,%sp
    1168:	4e5e           	unlk %fp
    116a:	4e75           	rts
    116c:	4e56 fffc      	linkw %fp,#-4
    1170:	2e87           	movel %d7,%sp@
    1172:	7e00           	moveq #0,%d7
    1174:	2007           	movel %d7,%d0
    1176:	e580           	asll #2,%d0
    1178:	2200           	movel %d0,%d1
    117a:	ed81           	asll #6,%d1
    117c:	d081           	addl %d1,%d0
    117e:	ed81           	asll #6,%d1
    1180:	d081           	addl %d1,%d0
    1182:	41f9 000a f2f8 	lea af2f8 <_iob>,%a0
    1188:	4a30 0800      	tstb %a0@(00000000,%d0:l)
    118c:	6708           	beqs 1196 <RST+0x105a>
    118e:	2f07           	movel %d7,%sp@-
    1190:	6100 ff74      	bsrw 1106 <RST+0xfca>
    1194:	584f           	addqw #4,%sp
    1196:	5287           	addql #1,%d7
    1198:	7203           	moveq #3,%d1
    119a:	be81           	cmpl %d1,%d7
    119c:	6dd6           	blts 1174 <RST+0x1038>
    119e:	4aae 0008      	tstl %fp@(8)
    11a2:	6714           	beqs 11b8 <RST+0x107c>
    11a4:	2f2e 0008      	movel %fp@(8),%sp@-
    11a8:	4879 000a 5fbb 	pea a5fbb <_openfirst+0x117>
    11ae:	2079 0fef 0084 	moveal fef0084 <_end+0xfe34a70>,%a0
    11b4:	4e90           	jsr %a0@
    11b6:	504f           	addqw #8,%sp
    11b8:	4eb9 000a 008a 	jsr a008a <__exit>
    11be:	2e2e fffc      	movel %fp@(-4),%d7
    11c2:	4e5e           	unlk %fp
    11c4:	4e75           	rts
    11c6:	0000 4e56      	orib #86,%d0
    11ca:	ffe4           	.short 0xffe4
    11cc:	48d7 38f0      	moveml %d4-%d7/%a3-%a5,%sp@
    11d0:	2a6e 0008      	moveal %fp@(8),%a5
    11d4:	0cae 0000 0001 	cmpil #1,%fp@(12)
    11da:	000c 
    11dc:	6610           	bnes 11ee <RST+0x10b2>
    11de:	0815 0004      	btst #4,%a5@
    11e2:	670a           	beqs 11ee <RST+0x10b2>
    11e4:	0215 ffef      	andib #-17,%a5@
    11e8:	7000           	moveq #0,%d0
    11ea:	6000 00a6      	braw 1292 <RST+0x1156>
    11ee:	286d 0022      	moveal %a5@(34),%a4
    11f2:	2c2d 001e      	movel %a5@(30),%d6
    11f6:	2e2d 0026      	movel %a5@(38),%d7
    11fa:	206d 0002      	moveal %a5@(2),%a0
    11fe:	2668 001a      	moveal %a0@(26),%a3
    1202:	2a0b           	movel %a3,%d5
    1204:	6710           	beqs 1216 <RST+0x10da>
    1206:	282b 0018      	movel %a3@(24),%d4
    120a:	670a           	beqs 1216 <RST+0x10da>
    120c:	3004           	movew %d4,%d0
    120e:	0280 0000 01ff 	andil #511,%d0
    1214:	6706           	beqs 121c <RST+0x10e0>
    1216:	283c 7fff ffff 	movel #2147483647,%d4
    121c:	7a00           	moveq #0,%d5
    121e:	6044           	bras 1264 <RST+0x1128>
    1220:	b8ad 0026      	cmpl %a5@(38),%d4
    1224:	6404           	bccs 122a <RST+0x10ee>
    1226:	2b44 0026      	movel %d4,%a5@(38)
    122a:	2f2e 000c      	movel %fp@(12),%sp@-
    122e:	4855           	pea %a5@
    1230:	206d 0002      	moveal %a5@(2),%a0
    1234:	2068 0012      	moveal %a0@(18),%a0
    1238:	4e90           	jsr %a0@
    123a:	504f           	addqw #8,%sp
    123c:	2a00           	movel %d0,%d5
    123e:	6f2a           	bles 126a <RST+0x112e>
    1240:	dbad 0022      	addl %d5,%a5@(34)
    1244:	2005           	movel %d5,%d0
    1246:	6c06           	bges 124e <RST+0x1112>
    1248:	0680 0000 01ff 	addil #511,%d0
    124e:	e080           	asrl #8,%d0
    1250:	e280           	asrl #1,%d0
    1252:	d1ad 001e      	addl %d0,%a5@(30)
    1256:	202d 0022      	movel %a5@(34),%d0
    125a:	908c           	subl %a4,%d0
    125c:	2207           	movel %d7,%d1
    125e:	9280           	subl %d0,%d1
    1260:	2b41 0026      	movel %d1,%a5@(38)
    1264:	4aad 0026      	tstl %a5@(38)
    1268:	6eb6           	bgts 1220 <RST+0x10e4>
    126a:	4a85           	tstl %d5
    126c:	6604           	bnes 1272 <RST+0x1136>
    126e:	0015 0010      	orib #16,%a5@
    1272:	4a85           	tstl %d5
    1274:	6d06           	blts 127c <RST+0x1140>
    1276:	2a2d 0022      	movel %a5@(34),%d5
    127a:	9a8c           	subl %a4,%d5
    127c:	4a85           	tstl %d5
    127e:	6604           	bnes 1284 <RST+0x1148>
    1280:	0215 ffef      	andib #-17,%a5@
    1284:	2b4c 0022      	movel %a4,%a5@(34)
    1288:	2b46 001e      	movel %d6,%a5@(30)
    128c:	2b47 0026      	movel %d7,%a5@(38)
    1290:	2005           	movel %d5,%d0
    1292:	4cee 38f0 ffe4 	moveml %fp@(-28),%d4-%d7/%a3-%a5
    1298:	4e5e           	unlk %fp
    129a:	4e75           	rts
    129c:	4e56 0000      	linkw %fp,#0
    12a0:	4878 0001      	pea 1 <CACR_ENABLE>
    12a4:	2f2e 0008      	movel %fp@(8),%sp@-
    12a8:	4eb9 000a 11c8 	jsr a11c8 <_strategy>
    12ae:	504f           	addqw #8,%sp
    12b0:	4e5e           	unlk %fp
    12b2:	4e75           	rts
    12b4:	4e56 0000      	linkw %fp,#0
    12b8:	4878 0002      	pea 2 <CACR_ENABLE+0x1>
    12bc:	2f2e 0008      	movel %fp@(8),%sp@-
    12c0:	4eb9 000a 11c8 	jsr a11c8 <_strategy>
    12c6:	504f           	addqw #8,%sp
    12c8:	4e5e           	unlk %fp
    12ca:	4e75           	rts
    12cc:	4e56 fff0      	linkw %fp,#-16
    12d0:	48d7 3880      	moveml %d7/%a3-%a5,%sp@
    12d4:	2a6e 0008      	moveal %fp@(8),%a5
    12d8:	0215 ffef      	andib #-17,%a5@
    12dc:	42ad 0032      	clrl %a5@(50)
    12e0:	42ad 0006      	clrl %a5@(6)
    12e4:	42ad 002e      	clrl %a5@(46)
    12e8:	206d 0002      	moveal %a5@(2),%a0
    12ec:	2868 001a      	moveal %a0@(26),%a4
    12f0:	2e0c           	movel %a4,%d7
    12f2:	677a           	beqs 136e <RST+0x1232>
    12f4:	202d 000a      	movel %a5@(10),%d0
    12f8:	b0ac 000c      	cmpl %a4@(12),%d0
    12fc:	6410           	bccs 130e <RST+0x11d2>
    12fe:	202d 000a      	movel %a5@(10),%d0
    1302:	e580           	asll #2,%d0
    1304:	206c 0010      	moveal %a4@(16),%a0
    1308:	2b70 0800 000a 	movel %a0@(00000000,%d0:l),%a5@(10)
    130e:	4a94           	tstl %a4@
    1310:	671e           	beqs 1330 <RST+0x11f4>
    1312:	2f14           	movel %a4@,%sp@-
    1314:	2f2d 000a      	movel %a5@(10),%sp@-
    1318:	2f2c 0014      	movel %a4@(20),%sp@-
    131c:	4eb9 000a 148e 	jsr a148e <_devalloc>
    1322:	4fef 000c      	lea %sp@(12),%sp
    1326:	2640           	moveal %d0,%a3
    1328:	2e0b           	movel %a3,%d7
    132a:	675c           	beqs 1388 <RST+0x124c>
    132c:	2b4b 002e      	movel %a3,%a5@(46)
    1330:	4aac 0004      	tstl %a4@(4)
    1334:	671a           	beqs 1350 <RST+0x1214>
    1336:	2f2c 0004      	movel %a4@(4),%sp@-
    133a:	4878 0002      	pea 2 <CACR_ENABLE+0x1>
    133e:	4eb9 000a 13b8 	jsr a13b8 <_resalloc>
    1344:	504f           	addqw #8,%sp
    1346:	2640           	moveal %d0,%a3
    1348:	2e0b           	movel %a3,%d7
    134a:	673c           	beqs 1388 <RST+0x124c>
    134c:	2b4b 0032      	movel %a3,%a5@(50)
    1350:	4aac 0008      	tstl %a4@(8)
    1354:	6718           	beqs 136e <RST+0x1232>
    1356:	2f2c 0008      	movel %a4@(8),%sp@-
    135a:	42a7           	clrl %sp@-
    135c:	4eb9 000a 13b8 	jsr a13b8 <_resalloc>
    1362:	504f           	addqw #8,%sp
    1364:	2640           	moveal %d0,%a3
    1366:	2e0b           	movel %a3,%d7
    1368:	671e           	beqs 1388 <RST+0x124c>
    136a:	2b4b 0006      	movel %a3,%a5@(6)
    136e:	4855           	pea %a5@
    1370:	206d 0002      	moveal %a5@(2),%a0
    1374:	2068 000a      	moveal %a0@(10),%a0
    1378:	4e90           	jsr %a0@
    137a:	584f           	addqw #4,%sp
    137c:	2e00           	movel %d0,%d7
    137e:	72ff           	moveq #-1,%d1
    1380:	be81           	cmpl %d1,%d7
    1382:	6704           	beqs 1388 <RST+0x124c>
    1384:	2007           	movel %d7,%d0
    1386:	6002           	bras 138a <RST+0x124e>
    1388:	70ff           	moveq #-1,%d0
    138a:	4cee 3880 fff0 	moveml %fp@(-16),%d7/%a3-%a5
    1390:	4e5e           	unlk %fp
    1392:	4e75           	rts
    1394:	4e56 fffc      	linkw %fp,#-4
    1398:	2e8d           	movel %a5,%sp@
    139a:	2a6e 0008      	moveal %fp@(8),%a5
    139e:	0215 ffef      	andib #-17,%a5@
    13a2:	4855           	pea %a5@
    13a4:	206d 0002      	moveal %a5@(2),%a0
    13a8:	2068 000e      	moveal %a0@(14),%a0
    13ac:	4e90           	jsr %a0@
    13ae:	584f           	addqw #4,%sp
    13b0:	2a6e fffc      	moveal %fp@(-4),%a5
    13b4:	4e5e           	unlk %fp
    13b6:	4e75           	rts
    13b8:	4e56 fff4      	linkw %fp,#-12
    13bc:	48d7 3080      	moveml %d7/%a4-%a5,%sp@
    13c0:	2e2e 000c      	movel %fp@(12),%d7
    13c4:	4ab9 000b b608 	tstl bb608 <_gp>
    13ca:	660e           	bnes 13da <RST+0x129e>
    13cc:	4879 0010 0000 	pea 100000 <_end+0x449ec>
    13d2:	4eb9 000a 152a 	jsr a152a <_reset_alloc>
    13d8:	584f           	addqw #4,%sp
    13da:	4a87           	tstl %d7
    13dc:	6760           	beqs 143e <RST+0x1302>
    13de:	0687 0000 07ff 	addil #2047,%d7
    13e4:	0287 ffff f800 	andil #-2048,%d7
    13ea:	202e 0008      	movel %fp@(8),%d0
    13ee:	7203           	moveq #3,%d1
    13f0:	b081           	cmpl %d1,%d0
    13f2:	624a           	bhis 143e <RST+0x1302>
    13f4:	d040           	addw %d0,%d0
    13f6:	303b 0006      	movew %pc@(13fe <RST+0x12c2>,%d0:w),%d0
    13fa:	4efb 0002      	jmp %pc@(13fe <RST+0x12c2>,%d0:w)
    13fe:	0024 0008      	orib #8,%a4@-
    1402:	0032 0016 2a79 	orib #22,%a2@(00000079,%d2:l:2)
    1408:	000b           	.short 0x000b
    140a:	b608           	.short 0xb608
    140c:	dfb9 000b b608 	addl %d7,bb608 <_gp>
    1412:	606e           	bras 1482 <RST+0x1346>
    1414:	2a79 000b b60c 	moveal bb60c <_gp+0x4>,%a5
    141a:	dfb9 000b b60c 	addl %d7,bb60c <_gp+0x4>
    1420:	6060           	bras 1482 <RST+0x1346>
    1422:	2a79 000b b608 	moveal bb608 <_gp>,%a5
    1428:	dfb9 000b b608 	addl %d7,bb608 <_gp>
    142e:	6012           	bras 1442 <RST+0x1306>
    1430:	2a79 000b b60c 	moveal bb60c <_gp+0x4>,%a5
    1436:	dfb9 000b b60c 	addl %d7,bb60c <_gp+0x4>
    143c:	6004           	bras 1442 <RST+0x1306>
    143e:	7000           	moveq #0,%d0
    1440:	6042           	bras 1484 <RST+0x1348>
    1442:	284d           	moveal %a5,%a4
    1444:	6038           	bras 147e <RST+0x1342>
    1446:	2f39 000b b610 	movel bb610 <_gp+0x8>,%sp@-
    144c:	4854           	pea %a4@
    144e:	4eb9 000a 1584 	jsr a1584 <_setpgmap>
    1454:	504f           	addqw #8,%sp
    1456:	4878 0800      	pea 800 <RST+0x6c4>
    145a:	4854           	pea %a4@
    145c:	4eb9 000a 4f44 	jsr a4f44 <_bzero>
    1462:	504f           	addqw #8,%sp
    1464:	49ec 0800      	lea %a4@(2048),%a4
    1468:	0487 0000 0800 	subil #2048,%d7
    146e:	7000           	moveq #0,%d0
    1470:	3039 000b b612 	movew bb612 <_gp+0xa>,%d0
    1476:	5380           	subql #1,%d0
    1478:	33c0 000b b612 	movew %d0,bb612 <_gp+0xa>
    147e:	4a87           	tstl %d7
    1480:	66c4           	bnes 1446 <RST+0x130a>
    1482:	200d           	movel %a5,%d0
    1484:	4cee 3080 fff4 	moveml %fp@(-12),%d7/%a4-%a5
    148a:	4e5e           	unlk %fp
    148c:	4e75           	rts
    148e:	4e56 ffe8      	linkw %fp,#-24
    1492:	48d7 30c0      	moveml %d6-%d7/%a4-%a5,%sp@
    1496:	2a6e 000c      	moveal %fp@(12),%a5
    149a:	2e2e 0010      	movel %fp@(16),%d7
    149e:	671e           	beqs 14be <RST+0x1382>
    14a0:	2c0d           	movel %a5,%d6
    14a2:	0286 0000 07ff 	andil #2047,%d6
    14a8:	dc87           	addl %d7,%d6
    14aa:	2f06           	movel %d6,%sp@-
    14ac:	4878 0001      	pea 1 <CACR_ENABLE>
    14b0:	4eb9 000a 13b8 	jsr a13b8 <_resalloc>
    14b6:	504f           	addqw #8,%sp
    14b8:	2d40 fffc      	movel %d0,%fp@(-4)
    14bc:	6604           	bnes 14c2 <RST+0x1386>
    14be:	7000           	moveq #0,%d0
    14c0:	605e           	bras 1520 <RST+0x13e4>
    14c2:	202e 0008      	movel %fp@(8),%d0
    14c6:	e580           	asll #2,%d0
    14c8:	0680 000a 601c 	addil #679964,%d0
    14ce:	2040           	moveal %d0,%a0
    14d0:	2d50 fff8      	movel %a0@,%fp@(-8)
    14d4:	200d           	movel %a5,%d0
    14d6:	720b           	moveq #11,%d1
    14d8:	e2a0           	asrl %d1,%d0
    14da:	7200           	moveq #0,%d1
    14dc:	322e fffa      	movew %fp@(-6),%d1
    14e0:	d280           	addl %d0,%d1
    14e2:	3d41 fffa      	movew %d1,%fp@(-6)
    14e6:	286e fffc      	moveal %fp@(-4),%a4
    14ea:	6024           	bras 1510 <RST+0x13d4>
    14ec:	2f2e fff8      	movel %fp@(-8),%sp@-
    14f0:	4854           	pea %a4@
    14f2:	4eb9 000a 1584 	jsr a1584 <_setpgmap>
    14f8:	504f           	addqw #8,%sp
    14fa:	49ec 0800      	lea %a4@(2048),%a4
    14fe:	0486 0000 0800 	subil #2048,%d6
    1504:	7000           	moveq #0,%d0
    1506:	302e fffa      	movew %fp@(-6),%d0
    150a:	5280           	addql #1,%d0
    150c:	3d40 fffa      	movew %d0,%fp@(-6)
    1510:	4a86           	tstl %d6
    1512:	6ed8           	bgts 14ec <RST+0x13b0>
    1514:	200d           	movel %a5,%d0
    1516:	0280 0000 07ff 	andil #2047,%d0
    151c:	d0ae fffc      	addl %fp@(-4),%d0
    1520:	4cee 30c0 ffe8 	moveml %fp@(-24),%d6-%d7/%a4-%a5
    1526:	4e5e           	unlk %fp
    1528:	4e75           	rts
    152a:	4e56 0000      	linkw %fp,#0
    152e:	23fc 0010 0000 	movel #1048576,bb608 <_gp>
    1534:	000b b608 
    1538:	23fc 00f0 0000 	movel #15728640,bb60c <_gp+0x4>
    153e:	000b b60c 
    1542:	41f9 000a 6018 	lea a6018 <_mainmapinit>,%a0
    1548:	23d0 000b b610 	movel %a0@,bb610 <_gp+0x8>
    154e:	202e 0008      	movel %fp@(8),%d0
    1552:	720b           	moveq #11,%d1
    1554:	e2a8           	lsrl %d1,%d0
    1556:	5380           	subql #1,%d0
    1558:	33c0 000b b612 	movew %d0,bb612 <_gp+0xa>
    155e:	4e5e           	unlk %fp
    1560:	4e75           	rts
    1562:	0000 202f      	orib #47,%d0
    1566:	0004 0240      	orib #64,%d4
    156a:	f800           	.short 0xf800
    156c:	2040           	moveal %d0,%a0
    156e:	4e7a 1000      	movec %sfc,%d1
    1572:	43f8 0003      	lea 3 <FC_MAP>,%a1
    1576:	4e7b 9000      	movec %a1,%sfc
    157a:	0e90 0000      	movesl %a0@,%d0
    157e:	4e7b 1000      	movec %d1,%sfc
    1582:	4e75           	rts
    1584:	202f 0004      	movel %sp@(4),%d0
    1588:	0240 f800      	andiw #-2048,%d0
    158c:	2040           	moveal %d0,%a0
    158e:	43f8 0003      	lea 3 <FC_MAP>,%a1
    1592:	4e7a 0000      	movec %sfc,%d0
    1596:	4e7b 9000      	movec %a1,%sfc
    159a:	0e28 1000 0005 	movesb %a0@(5),%d1
    15a0:	4e7b 0000      	movec %d0,%sfc
    15a4:	202f 0008      	movel %sp@(8),%d0
    15a8:	0c01 00ff      	cmpib #-1,%d1
    15ac:	660a           	bnes 15b8 <RST+0x147c>
    15ae:	0c80 8000 0000 	cmpil #-2147483648,%d0
    15b4:	6702           	beqs 15b8 <RST+0x147c>
    15b6:	60fd           	bras 15b5 <RST+0x1479>
    15b8:	4e7a 1001      	movec %dfc,%d1
    15bc:	4e7b 9001      	movec %a1,%dfc
    15c0:	0e90 0800      	movesl %d0,%a0@
    15c4:	4e7b 1001      	movec %d1,%dfc
    15c8:	4e75           	rts
    15ca:	4280           	clrl %d0
    15cc:	4e7a 1001      	movec %dfc,%d1
    15d0:	43f8 0003      	lea 3 <FC_MAP>,%a1
    15d4:	4e7b 9001      	movec %a1,%dfc
    15d8:	0e38 0800 0007 	movesb %d0,7 <CONTEXTMASK>
    15de:	4e7b 1001      	movec %d1,%dfc
    15e2:	4e75           	rts
    15e4:	4e56 fffc      	linkw %fp,#-4
    15e8:	2e87           	movel %d7,%sp@
    15ea:	2079 0fef 001c 	moveal fef001c <_end+0xfe34a08>,%a0
    15f0:	4e90           	jsr %a0@
    15f2:	2e00           	movel %d0,%d7
    15f4:	72ff           	moveq #-1,%d1
    15f6:	b081           	cmpl %d1,%d0
    15f8:	67f0           	beqs 15ea <RST+0x14ae>
    15fa:	720d           	moveq #13,%d1
    15fc:	be81           	cmpl %d1,%d7
    15fe:	6604           	bnes 1604 <RST+0x14c8>
    1600:	7e0a           	moveq #10,%d7
    1602:	602a           	bras 162e <RST+0x14f2>
    1604:	727f           	moveq #127,%d1
    1606:	be81           	cmpl %d1,%d7
    1608:	6706           	beqs 1610 <RST+0x14d4>
    160a:	7208           	moveq #8,%d1
    160c:	be81           	cmpl %d1,%d7
    160e:	661e           	bnes 162e <RST+0x14f2>
    1610:	4878 0008      	pea 8 <CACR_CLEAR>
    1614:	2079 0fef 0018 	moveal fef0018 <_end+0xfe34a04>,%a0
    161a:	4e90           	jsr %a0@
    161c:	584f           	addqw #4,%sp
    161e:	4878 0020      	pea 20 <CACR_CLEAR+0x18>
    1622:	2079 0fef 0018 	moveal fef0018 <_end+0xfe34a04>,%a0
    1628:	4e90           	jsr %a0@
    162a:	584f           	addqw #4,%sp
    162c:	7e08           	moveq #8,%d7
    162e:	2f07           	movel %d7,%sp@-
    1630:	2079 0fef 0018 	moveal fef0018 <_end+0xfe34a04>,%a0
    1636:	4e90           	jsr %a0@
    1638:	584f           	addqw #4,%sp
    163a:	2007           	movel %d7,%d0
    163c:	2e2e fffc      	movel %fp@(-4),%d7
    1640:	4e5e           	unlk %fp
    1642:	4e75           	rts
    1644:	4e56 fff8      	linkw %fp,#-8
    1648:	48d7 2080      	moveml %d7/%a5,%sp@
    164c:	2a6e 0008      	moveal %fp@(8),%a5
    1650:	600e           	bras 1660 <RST+0x1524>
    1652:	720d           	moveq #13,%d1
    1654:	b081           	cmpl %d1,%d0
    1656:	6720           	beqs 1678 <RST+0x153c>
    1658:	7215           	moveq #21,%d1
    165a:	b081           	cmpl %d1,%d0
    165c:	6734           	beqs 1692 <RST+0x1556>
    165e:	1ac7           	moveb %d7,%a5@+
    1660:	4eb9 000a 15e4 	jsr a15e4 <_getchar>
    1666:	7e7f           	moveq #127,%d7
    1668:	c087           	andl %d7,%d0
    166a:	1e00           	moveb %d0,%d7
    166c:	7208           	moveq #8,%d1
    166e:	b081           	cmpl %d1,%d0
    1670:	6712           	beqs 1684 <RST+0x1548>
    1672:	720a           	moveq #10,%d1
    1674:	b081           	cmpl %d1,%d0
    1676:	66da           	bnes 1652 <RST+0x1516>
    1678:	421d           	clrb %a5@+
    167a:	4cee 2080 fff8 	moveml %fp@(-8),%d7/%a5
    1680:	4e5e           	unlk %fp
    1682:	4e75           	rts
    1684:	538d           	subql #1,%a5
    1686:	bbee 0008      	cmpal %fp@(8),%a5
    168a:	64d4           	bccs 1660 <RST+0x1524>
    168c:	2a6e 0008      	moveal %fp@(8),%a5
    1690:	60ce           	bras 1660 <RST+0x1524>
    1692:	2a6e 0008      	moveal %fp@(8),%a5
    1696:	4878 000a      	pea a <CACR_CLEAR+0x2>
    169a:	2079 0fef 0018 	moveal fef0018 <_end+0xfe34a04>,%a0
    16a0:	4e90           	jsr %a0@
    16a2:	584f           	addqw #4,%sp
    16a4:	60ba           	bras 1660 <RST+0x1524>
    16a6:	0000 4480      	orib #-128,%d0
    16aa:	4a81           	tstl %d1
    16ac:	6c04           	bges 16b2 <RST+0x1576>
    16ae:	4481           	negl %d1
    16b0:	6028           	bras 16da <RST+0x159e>
    16b2:	6126           	bsrs 16da <RST+0x159e>
    16b4:	4480           	negl %d0
    16b6:	4e75           	rts
    16b8:	4481           	negl %d1
    16ba:	611e           	bsrs 16da <RST+0x159e>
    16bc:	4480           	negl %d0
    16be:	4e75           	rts
    16c0:	4e56 0000      	linkw %fp,#0
    16c4:	80c1           	divuw %d1,%d0
    16c6:	4e5e           	unlk %fp
    16c8:	4e75           	rts
    16ca:	4a81           	tstl %d1
    16cc:	67f2           	beqs 16c0 <RST+0x1584>
    16ce:	600a           	bras 16da <RST+0x159e>
    16d0:	4a80           	tstl %d0
    16d2:	6dd4           	blts 16a8 <RST+0x156c>
    16d4:	4a81           	tstl %d1
    16d6:	6de0           	blts 16b8 <RST+0x157c>
    16d8:	67e6           	beqs 16c0 <RST+0x1584>
    16da:	4a2f ffd8      	tstb %sp@(-40)
    16de:	48e7 3c80      	moveml %d2-%d5/%a0,%sp@-
    16e2:	2601           	movel %d1,%d3
    16e4:	4243           	clrw %d3
    16e6:	4843           	swap %d3
    16e8:	6634           	bnes 171e <RST+0x15e2>
    16ea:	2400           	movel %d0,%d2
    16ec:	4242           	clrw %d2
    16ee:	4842           	swap %d2
    16f0:	b481           	cmpl %d1,%d2
    16f2:	6c0e           	bges 1702 <RST+0x15c6>
    16f4:	80c1           	divuw %d1,%d0
    16f6:	0280 0000 ffff 	andil #65535,%d0
    16fc:	4cdf 013c      	moveml %sp@+,%d2-%d5/%a0
    1700:	4e75           	rts
    1702:	84c1           	divuw %d1,%d2
    1704:	2602           	movel %d2,%d3
    1706:	3600           	movew %d0,%d3
    1708:	86c1           	divuw %d1,%d3
    170a:	2003           	movel %d3,%d0
    170c:	0280 0000 ffff 	andil #65535,%d0
    1712:	4842           	swap %d2
    1714:	4242           	clrw %d2
    1716:	d082           	addl %d2,%d0
    1718:	4cdf 013c      	moveml %sp@+,%d2-%d5/%a0
    171c:	4e75           	rts
    171e:	7800           	moveq #0,%d4
    1720:	2400           	movel %d0,%d2
    1722:	e68a           	lsrl #3,%d2
    1724:	b481           	cmpl %d1,%d2
    1726:	6212           	bhis 173a <RST+0x15fe>
    1728:	5284           	addql #1,%d4
    172a:	9081           	subl %d1,%d0
    172c:	62fa           	bhis 1728 <RST+0x15ec>
    172e:	6702           	beqs 1732 <RST+0x15f6>
    1730:	5384           	subql #1,%d4
    1732:	2004           	movel %d4,%d0
    1734:	4cdf 013c      	moveml %sp@+,%d2-%d5/%a0
    1738:	4e75           	rts
    173a:	2400           	movel %d0,%d2
    173c:	2601           	movel %d1,%d3
    173e:	5383           	subql #1,%d3
    1740:	5284           	addql #1,%d4
    1742:	e28b           	lsrl #1,%d3
    1744:	0c83 0000 ffff 	cmpil #65535,%d3
    174a:	62f4           	bhis 1740 <RST+0x1604>
    174c:	5283           	addql #1,%d3
    174e:	0c83 0000 ffff 	cmpil #65535,%d3
    1754:	6304           	blss 175a <RST+0x161e>
    1756:	e28b           	lsrl #1,%d3
    1758:	5284           	addql #1,%d4
    175a:	e8aa           	lsrl %d4,%d2
    175c:	84c3           	divuw %d3,%d2
    175e:	2601           	movel %d1,%d3
    1760:	2a01           	movel %d1,%d5
    1762:	4843           	swap %d3
    1764:	cac2           	muluw %d2,%d5
    1766:	c6c2           	muluw %d2,%d3
    1768:	4843           	swap %d3
    176a:	4243           	clrw %d3
    176c:	da83           	addl %d3,%d5
    176e:	9085           	subl %d5,%d0
    1770:	b280           	cmpl %d0,%d1
    1772:	6e02           	bgts 1776 <RST+0x163a>
    1774:	5282           	addql #1,%d2
    1776:	2002           	movel %d2,%d0
    1778:	0280 0000 ffff 	andil #65535,%d0
    177e:	4cdf 013c      	moveml %sp@+,%d2-%d5/%a0
    1782:	4e75           	rts
    1784:	4480           	negl %d0
    1786:	4a81           	tstl %d1
    1788:	6c02           	bges 178c <RST+0x1650>
    178a:	4481           	negl %d1
    178c:	6120           	bsrs 17ae <RST+0x1672>
    178e:	4480           	negl %d0
    1790:	4e75           	rts
    1792:	4e56 0000      	linkw %fp,#0
    1796:	80c1           	divuw %d1,%d0
    1798:	4e5e           	unlk %fp
    179a:	4e75           	rts
    179c:	4a81           	tstl %d1
    179e:	67f2           	beqs 1792 <RST+0x1656>
    17a0:	600c           	bras 17ae <RST+0x1672>
    17a2:	4a80           	tstl %d0
    17a4:	6dde           	blts 1784 <RST+0x1648>
    17a6:	4a81           	tstl %d1
    17a8:	67e8           	beqs 1792 <RST+0x1656>
    17aa:	6c02           	bges 17ae <RST+0x1672>
    17ac:	4481           	negl %d1
    17ae:	4a2f ffd8      	tstb %sp@(-40)
    17b2:	48e7 3c80      	moveml %d2-%d5/%a0,%sp@-
    17b6:	2601           	movel %d1,%d3
    17b8:	4243           	clrw %d3
    17ba:	4843           	swap %d3
    17bc:	662a           	bnes 17e8 <RST+0x16ac>
    17be:	2400           	movel %d0,%d2
    17c0:	4242           	clrw %d2
    17c2:	4842           	swap %d2
    17c4:	b481           	cmpl %d1,%d2
    17c6:	6c0c           	bges 17d4 <RST+0x1698>
    17c8:	80c1           	divuw %d1,%d0
    17ca:	4240           	clrw %d0
    17cc:	4840           	swap %d0
    17ce:	4cdf 013c      	moveml %sp@+,%d2-%d5/%a0
    17d2:	4e75           	rts
    17d4:	84c1           	divuw %d1,%d2
    17d6:	2602           	movel %d2,%d3
    17d8:	3600           	movew %d0,%d3
    17da:	86c1           	divuw %d1,%d3
    17dc:	4243           	clrw %d3
    17de:	2003           	movel %d3,%d0
    17e0:	4840           	swap %d0
    17e2:	4cdf 013c      	moveml %sp@+,%d2-%d5/%a0
    17e6:	4e75           	rts
    17e8:	7800           	moveq #0,%d4
    17ea:	2400           	movel %d0,%d2
    17ec:	e68a           	lsrl #3,%d2
    17ee:	b481           	cmpl %d1,%d2
    17f0:	6210           	bhis 1802 <RST+0x16c6>
    17f2:	5284           	addql #1,%d4
    17f4:	9081           	subl %d1,%d0
    17f6:	62fa           	bhis 17f2 <RST+0x16b6>
    17f8:	6702           	beqs 17fc <RST+0x16c0>
    17fa:	d081           	addl %d1,%d0
    17fc:	4cdf 013c      	moveml %sp@+,%d2-%d5/%a0
    1800:	4e75           	rts
    1802:	2400           	movel %d0,%d2
    1804:	2601           	movel %d1,%d3
    1806:	5383           	subql #1,%d3
    1808:	5284           	addql #1,%d4
    180a:	e28b           	lsrl #1,%d3
    180c:	0c83 0000 ffff 	cmpil #65535,%d3
    1812:	62f4           	bhis 1808 <RST+0x16cc>
    1814:	5283           	addql #1,%d3
    1816:	0c83 0000 ffff 	cmpil #65535,%d3
    181c:	6304           	blss 1822 <RST+0x16e6>
    181e:	e28b           	lsrl #1,%d3
    1820:	5284           	addql #1,%d4
    1822:	e8aa           	lsrl %d4,%d2
    1824:	84c3           	divuw %d3,%d2
    1826:	2601           	movel %d1,%d3
    1828:	2a01           	movel %d1,%d5
    182a:	4843           	swap %d3
    182c:	cac2           	muluw %d2,%d5
    182e:	c6c2           	muluw %d2,%d3
    1830:	4843           	swap %d3
    1832:	4243           	clrw %d3
    1834:	da83           	addl %d3,%d5
    1836:	9085           	subl %d5,%d0
    1838:	b280           	cmpl %d0,%d1
    183a:	6e02           	bgts 183e <RST+0x1702>
    183c:	9081           	subl %d1,%d0
    183e:	4cdf 013c      	moveml %sp@+,%d2-%d5/%a0
    1842:	4e75           	rts
    1844:	4e56 ffe4      	linkw %fp,#-28
    1848:	48d7 3c80      	moveml %d7/%a2-%a5,%sp@
    184c:	2a6e 0008      	moveal %fp@(8),%a5
    1850:	266d 0032      	moveal %a5@(50),%a3
    1854:	7e12           	moveq #18,%d7
    1856:	d7c7           	addal %d7,%a3
    1858:	286d 0006      	moveal %a5@(6),%a4
    185c:	202d 000e      	movel %a5@(14),%d0
    1860:	7e03           	moveq #3,%d7
    1862:	c087           	andl %d7,%d0
    1864:	2880           	movel %d0,%a4@
    1866:	202d 000e      	movel %a5@(14),%d0
    186a:	e480           	asrl #2,%d0
    186c:	0240 0001      	andiw #1,%d0
    1870:	3d40 fffe      	movew %d0,%fp@(-2)
    1874:	296d 002e 0018 	movel %a5@(46),%a4@(24)
    187a:	7e02           	moveq #2,%d7
    187c:	2947 0008      	movel %d7,%a4@(8)
    1880:	2947 000c      	movel %d7,%a4@(12)
    1884:	7e04           	moveq #4,%d7
    1886:	2947 0010      	movel %d7,%a4@(16)
    188a:	42ac 0014      	clrl %a4@(20)
    188e:	42ac 0004      	clrl %a4@(4)
    1892:	42ac 0014      	clrl %a4@(20)
    1896:	6000 008c      	braw 1924 <RST+0x17e8>
    189a:	426b 01fc      	clrw %a3@(508)
    189e:	4853           	pea %a3@
    18a0:	42a7           	clrl %sp@-
    18a2:	4855           	pea %a5@
    18a4:	4878 0081      	pea 81 <CACR_CLEAR+0x79>
    18a8:	4eb9 000a 19fe 	jsr a19fe <_ipcmd>
    18ae:	4fef 0010      	lea %sp@(16),%sp
    18b2:	4a80           	tstl %d0
    18b4:	666a           	bnes 1920 <RST+0x17e4>
    18b6:	0c6b dabe 01fc 	cmpiw #-9538,%a3@(508)
    18bc:	6662           	bnes 1920 <RST+0x17e4>
    18be:	7e00           	moveq #0,%d7
    18c0:	3d7c 0100 fffa 	movew #256,%fp@(-6)
    18c6:	244b           	moveal %a3,%a2
    18c8:	6004           	bras 18ce <RST+0x1792>
    18ca:	301a           	movew %a2@+,%d0
    18cc:	b147           	eorw %d0,%d7
    18ce:	302e fffa      	movew %fp@(-6),%d0
    18d2:	536e fffa      	subqw #1,%fp@(-6)
    18d6:	4a40           	tstw %d0
    18d8:	66f0           	bnes 18ca <RST+0x178e>
    18da:	4a47           	tstw %d7
    18dc:	6716           	beqs 18f4 <RST+0x17b8>
    18de:	2f2c 0014      	movel %a4@(20),%sp@-
    18e2:	4879 000a 60bc 	pea a60bc <_ipdriver+0x20>
    18e8:	2079 0fef 0084 	moveal fef0084 <_end+0xfe34a70>,%a0
    18ee:	4e90           	jsr %a0@
    18f0:	504f           	addqw #8,%sp
    18f2:	602c           	bras 1920 <RST+0x17e4>
    18f4:	7000           	moveq #0,%d0
    18f6:	302b 01b8      	movew %a3@(440),%d0
    18fa:	b0ac 0014      	cmpl %a4@(20),%d0
    18fe:	6716           	beqs 1916 <RST+0x17da>
    1900:	2f2c 0014      	movel %a4@(20),%sp@-
    1904:	4879 000a 60d6 	pea a60d6 <_ipdriver+0x3a>
    190a:	2079 0fef 0084 	moveal fef0084 <_end+0xfe34a70>,%a0
    1910:	4e90           	jsr %a0@
    1912:	504f           	addqw #8,%sp
    1914:	600a           	bras 1920 <RST+0x17e4>
    1916:	302e fffe      	movew %fp@(-2),%d0
    191a:	b06b 01ba      	cmpw %a3@(442),%d0
    191e:	6742           	beqs 1962 <RST+0x1826>
    1920:	52ac 0014      	addql #1,%a4@(20)
    1924:	0cac 0000 0004 	cmpil #4,%a4@(20)
    192a:	0014 
    192c:	6d00 ff6c      	bltw 189a <RST+0x175e>
    1930:	4a6e fffe      	tstw %fp@(-2)
    1934:	6718           	beqs 194e <RST+0x1812>
    1936:	7000           	moveq #0,%d0
    1938:	302e fffe      	movew %fp@(-2),%d0
    193c:	2f00           	movel %d0,%sp@-
    193e:	4879 000a 60f2 	pea a60f2 <_ipdriver+0x56>
    1944:	2079 0fef 0084 	moveal fef0084 <_end+0xfe34a70>,%a0
    194a:	4e90           	jsr %a0@
    194c:	504f           	addqw #8,%sp
    194e:	4879 000a 6105 	pea a6105 <_ipdriver+0x69>
    1954:	2079 0fef 0084 	moveal fef0084 <_end+0xfe34a70>,%a0
    195a:	4e90           	jsr %a0@
    195c:	584f           	addqw #4,%sp
    195e:	70ff           	moveq #-1,%d0
    1960:	603a           	bras 199c <RST+0x1860>
    1962:	7000           	moveq #0,%d0
    1964:	302b 01b4      	movew %a3@(436),%d0
    1968:	2940 0010      	movel %d0,%a4@(16)
    196c:	7000           	moveq #0,%d0
    196e:	302b 01b6      	movew %a3@(438),%d0
    1972:	2940 0008      	movel %d0,%a4@(8)
    1976:	7000           	moveq #0,%d0
    1978:	302b 01b0      	movew %a3@(432),%d0
    197c:	2940 000c      	movel %d0,%a4@(12)
    1980:	7000           	moveq #0,%d0
    1982:	302b 01b8      	movew %a3@(440),%d0
    1986:	2940 0014      	movel %d0,%a4@(20)
    198a:	41eb 01bc      	lea %a3@(444),%a0
    198e:	202d 0012      	movel %a5@(18),%d0
    1992:	e780           	asll #3,%d0
    1994:	d1c0           	addal %d0,%a0
    1996:	2950 0004      	movel %a0@,%a4@(4)
    199a:	7000           	moveq #0,%d0
    199c:	4cee 3c80 ffe4 	moveml %fp@(-28),%d7/%a2-%a5
    19a2:	4e5e           	unlk %fp
    19a4:	4e75           	rts
    19a6:	4e56 fff4      	linkw %fp,#-12
    19aa:	48d7 20c0      	moveml %d6-%d7/%a5,%sp@
    19ae:	0cae 0000 0002 	cmpil #2,%fp@(12)
    19b4:	000c 
    19b6:	6608           	bnes 19c0 <RST+0x1884>
    19b8:	203c 0000 0082 	movel #130,%d0
    19be:	6006           	bras 19c6 <RST+0x188a>
    19c0:	203c 0000 0081 	movel #129,%d0
    19c6:	206e 0008      	moveal %fp@(8),%a0
    19ca:	2c28 001e      	movel %a0@(30),%d6
    19ce:	2a68 0022      	moveal %a0@(34),%a5
    19d2:	4855           	pea %a5@
    19d4:	2f06           	movel %d6,%sp@-
    19d6:	2f08           	movel %a0,%sp@-
    19d8:	2f00           	movel %d0,%sp@-
    19da:	4eb9 000a 19fe 	jsr a19fe <_ipcmd>
    19e0:	4fef 0010      	lea %sp@(16),%sp
    19e4:	4a80           	tstl %d0
    19e6:	6704           	beqs 19ec <RST+0x18b0>
    19e8:	70ff           	moveq #-1,%d0
    19ea:	6008           	bras 19f4 <RST+0x18b8>
    19ec:	206e 0008      	moveal %fp@(8),%a0
    19f0:	2028 0026      	movel %a0@(38),%d0
    19f4:	4cee 20c0 fff4 	moveml %fp@(-12),%d6-%d7/%a5
    19fa:	4e5e           	unlk %fp
    19fc:	4e75           	rts
    19fe:	4e56 ffc8      	linkw %fp,#-56
    1a02:	48d7 3cd8      	moveml %d3-%d4/%d6-%d7/%a2-%a5,%sp@
    1a06:	2e2e 0008      	movel %fp@(8),%d7
    1a0a:	2c2e 0010      	movel %fp@(16),%d6
    1a0e:	2a6e 0014      	moveal %fp@(20),%a5
    1a12:	206e 000c      	moveal %fp@(12),%a0
    1a16:	2868 0006      	moveal %a0@(6),%a4
    1a1a:	246c 0018      	moveal %a4@(24),%a2
    1a1e:	42ae ffe8      	clrl %fp@(-24)
    1a22:	2668 0032      	moveal %a0@(50),%a3
    1a26:	4878 0018      	pea 18 <CACR_CLEAR+0x10>
    1a2a:	4853           	pea %a3@
    1a2c:	4eb9 000a 4f44 	jsr a4f44 <_bzero>
    1a32:	504f           	addqw #8,%sp
    1a34:	206e 000c      	moveal %fp@(12),%a0
    1a38:	2028 0032      	movel %a0@(50),%d0
    1a3c:	7812           	moveq #18,%d4
    1a3e:	d084           	addl %d4,%d0
    1a40:	2d40 fffc      	movel %d0,%fp@(-4)
    1a44:	202c 0008      	movel %a4@(8),%d0
    1a48:	222c 0010      	movel %a4@(16),%d1
    1a4c:	4eb9 000a 5cfe 	jsr a5cfe <lmult>
    1a52:	2200           	movel %d0,%d1
    1a54:	2006           	movel %d6,%d0
    1a56:	4eb9 000a 16d0 	jsr a16d0 <ldivt>
    1a5c:	2d40 fff8      	movel %d0,%fp@(-8)
    1a60:	202c 0004      	movel %a4@(4),%d0
    1a64:	d1ae fff8      	addl %d0,%fp@(-8)
    1a68:	202e fff8      	movel %fp@(-8),%d0
    1a6c:	b0ac 000c      	cmpl %a4@(12),%d0
    1a70:	6e00 01b0      	bgtw 1c22 <RST+0x1ae6>
    1a74:	2006           	movel %d6,%d0
    1a76:	222c 0008      	movel %a4@(8),%d1
    1a7a:	4eb9 000a 17a2 	jsr a17a2 <lmodt>
    1a80:	2d40 fff4      	movel %d0,%fp@(-12)
    1a84:	0c87 0000 0082 	cmpil #130,%d7
    1a8a:	662e           	bnes 1aba <RST+0x197e>
    1a8c:	bbee fffc      	cmpal %fp@(-4),%a5
    1a90:	6728           	beqs 1aba <RST+0x197e>
    1a92:	4878 0200      	pea 200 <RST+0xc4>
    1a96:	2f2e fffc      	movel %fp@(-4),%sp@-
    1a9a:	4855           	pea %a5@
    1a9c:	4eb9 000a 4f6a 	jsr a4f6a <_bcopy>
    1aa2:	4fef 000c      	lea %sp@(12),%sp
    1aa6:	6012           	bras 1aba <RST+0x197e>
    1aa8:	263c 0000 01e0 	movel #480,%d3
    1aae:	2239 000a 5da6 	movel a5da6 <_cpudelay>,%d1
    1ab4:	e2a3           	asrl %d1,%d3
    1ab6:	5383           	subql #1,%d3
    1ab8:	6efc           	bgts 1ab6 <RST+0x197a>
    1aba:	082a 0000 0001 	btst #0,%a2@(1)
    1ac0:	66e6           	bnes 1aa8 <RST+0x196c>
    1ac2:	1747 0001      	moveb %d7,%a3@(1)
    1ac6:	4213           	clrb %a3@
    1ac8:	422b 0003      	clrb %a3@(3)
    1acc:	2014           	movel %a4@,%d0
    1ace:	7803           	moveq #3,%d4
    1ad0:	c084           	andl %d4,%d0
    1ad2:	7801           	moveq #1,%d4
    1ad4:	e1a4           	asll %d0,%d4
    1ad6:	e984           	asll #4,%d4
    1ad8:	222e fff8      	movel %fp@(-8),%d1
    1adc:	e081           	asrl #8,%d1
    1ade:	0201 000f      	andib #15,%d1
    1ae2:	8801           	orb %d1,%d4
    1ae4:	1744 0002      	moveb %d4,%a3@(2)
    1ae8:	176e fffb 0005 	moveb %fp@(-5),%a3@(5)
    1aee:	0c87 0000 0089 	cmpil #137,%d7
    1af4:	6608           	bnes 1afe <RST+0x19c2>
    1af6:	176c 000b 0004 	moveb %a4@(11),%a3@(4)
    1afc:	6006           	bras 1b04 <RST+0x19c8>
    1afe:	176e fff7 0004 	moveb %fp@(-9),%a3@(4)
    1b04:	177c 0001 0007 	moveb #1,%a3@(7)
    1b0a:	202e fffc      	movel %fp@(-4),%d0
    1b0e:	0280 000f ffff 	andil #1048575,%d0
    1b14:	7210           	moveq #16,%d1
    1b16:	e2a0           	asrl %d1,%d0
    1b18:	1740 0006      	moveb %d0,%a3@(6)
    1b1c:	202e fffc      	movel %fp@(-4),%d0
    1b20:	0280 000f ffff 	andil #1048575,%d0
    1b26:	e080           	asrl #8,%d0
    1b28:	1740 0009      	moveb %d0,%a3@(9)
    1b2c:	202e fffc      	movel %fp@(-4),%d0
    1b30:	0280 000f ffff 	andil #1048575,%d0
    1b36:	1740 0008      	moveb %d0,%a3@(8)
    1b3a:	202c 0008      	movel %a4@(8),%d0
    1b3e:	222c 0010      	movel %a4@(16),%d1
    1b42:	4eb9 000a 5cfe 	jsr a5cfe <lmult>
    1b48:	2200           	movel %d0,%d1
    1b4a:	2006           	movel %d6,%d0
    1b4c:	4eb9 000a 17a2 	jsr a17a2 <lmodt>
    1b52:	222c 0008      	movel %a4@(8),%d1
    1b56:	4eb9 000a 16d0 	jsr a16d0 <ldivt>
    1b5c:	d0ac 0014      	addl %a4@(20),%d0
    1b60:	1740 000b      	moveb %d0,%a3@(11)
    1b64:	200a           	movel %a2,%d0
    1b66:	1740 000a      	moveb %d0,%a3@(10)
    1b6a:	177c 0010 000d 	moveb #16,%a3@(13)
    1b70:	422b 000c      	clrb %a3@(12)
    1b74:	422b 000f      	clrb %a3@(15)
    1b78:	422b 000e      	clrb %a3@(14)
    1b7c:	422b 0011      	clrb %a3@(17)
    1b80:	422b 0010      	clrb %a3@(16)
    1b84:	200b           	movel %a3,%d0
    1b86:	0280 000f ffff 	andil #1048575,%d0
    1b8c:	7210           	moveq #16,%d1
    1b8e:	e2a0           	asrl %d1,%d0
    1b90:	0000 0020      	orib #32,%d0
    1b94:	1480           	moveb %d0,%a2@
    1b96:	200b           	movel %a3,%d0
    1b98:	0280 000f ffff 	andil #1048575,%d0
    1b9e:	e080           	asrl #8,%d0
    1ba0:	1540 0003      	moveb %d0,%a2@(3)
    1ba4:	200b           	movel %a3,%d0
    1ba6:	0200 00ff      	andib #-1,%d0
    1baa:	1540 0002      	moveb %d0,%a2@(2)
    1bae:	157c 0001 0001 	moveb #1,%a2@(1)
    1bb4:	4a13           	tstb %a3@
    1bb6:	676e           	beqs 1c26 <RST+0x1aea>
    1bb8:	0c13 0081      	cmpib #-127,%a3@
    1bbc:	6768           	beqs 1c26 <RST+0x1aea>
    1bbe:	7000           	moveq #0,%d0
    1bc0:	1013           	moveb %a3@,%d0
    1bc2:	2d40 fff0      	movel %d0,%fp@(-16)
    1bc6:	7000           	moveq #0,%d0
    1bc8:	102b 0003      	moveb %a3@(3),%d0
    1bcc:	2d40 ffec      	movel %d0,%fp@(-20)
    1bd0:	157c 0002 0001 	moveb #2,%a2@(1)
    1bd6:	0cae 0000 0080 	cmpil #128,%fp@(-16)
    1bdc:	fff0 
    1bde:	675c           	beqs 1c3c <RST+0x1b00>
    1be0:	2f2e ffec      	movel %fp@(-20),%sp@-
    1be4:	4879 000a 6116 	pea a6116 <_ipdriver+0x7a>
    1bea:	2079 0fef 0084 	moveal fef0084 <_end+0xfe34a70>,%a0
    1bf0:	4e90           	jsr %a0@
    1bf2:	504f           	addqw #8,%sp
    1bf4:	0c87 0000 0089 	cmpil #137,%d7
    1bfa:	6716           	beqs 1c12 <RST+0x1ad6>
    1bfc:	42a7           	clrl %sp@-
    1bfe:	42a7           	clrl %sp@-
    1c00:	4854           	pea %a4@
    1c02:	4878 0089      	pea 89 <CACR_CLEAR+0x81>
    1c06:	6100 fdf6      	bsrw 19fe <RST+0x18c2>
    1c0a:	4fef 0010      	lea %sp@(16),%sp
    1c0e:	4a80           	tstl %d0
    1c10:	6610           	bnes 1c22 <RST+0x1ae6>
    1c12:	52ae ffe8      	addql #1,%fp@(-24)
    1c16:	0cae 0000 000a 	cmpil #10,%fp@(-24)
    1c1c:	ffe8 
    1c1e:	6d00 fe9a      	bltw 1aba <RST+0x197e>
    1c22:	70ff           	moveq #-1,%d0
    1c24:	6040           	bras 1c66 <RST+0x1b2a>
    1c26:	263c 0000 01e0 	movel #480,%d3
    1c2c:	2239 000a 5da6 	movel a5da6 <_cpudelay>,%d1
    1c32:	e2a3           	asrl %d1,%d3
    1c34:	5383           	subql #1,%d3
    1c36:	6f00 ff7c      	blew 1bb4 <RST+0x1a78>
    1c3a:	60f8           	bras 1c34 <RST+0x1af8>
    1c3c:	157c 0002 0001 	moveb #2,%a2@(1)
    1c42:	0c87 0000 0081 	cmpil #129,%d7
    1c48:	661a           	bnes 1c64 <RST+0x1b28>
    1c4a:	bbee fffc      	cmpal %fp@(-4),%a5
    1c4e:	6714           	beqs 1c64 <RST+0x1b28>
    1c50:	4878 0200      	pea 200 <RST+0xc4>
    1c54:	4855           	pea %a5@
    1c56:	2f2e fffc      	movel %fp@(-4),%sp@-
    1c5a:	4eb9 000a 4f6a 	jsr a4f6a <_bcopy>
    1c60:	4fef 000c      	lea %sp@(12),%sp
    1c64:	7000           	moveq #0,%d0
    1c66:	4cee 3cd8 ffc8 	moveml %fp@(-56),%d3-%d4/%d6-%d7/%a2-%a5
    1c6c:	4e5e           	unlk %fp
    1c6e:	4e75           	rts
    1c70:	4e56 fff8      	linkw %fp,#-8
    1c74:	48d7 2080      	moveml %d7/%a5,%sp@
    1c78:	2a6e 0008      	moveal %fp@(8),%a5
    1c7c:	4855           	pea %a5@
    1c7e:	4eb9 000a 1ebc 	jsr a1ebc <_tminit>
    1c84:	584f           	addqw #4,%sp
    1c86:	7eff           	moveq #-1,%d7
    1c88:	b087           	cmpl %d7,%d0
    1c8a:	6604           	bnes 1c90 <RST+0x1b54>
    1c8c:	70ff           	moveq #-1,%d0
    1c8e:	6032           	bras 1cc2 <RST+0x1b86>
    1c90:	4878 0034      	pea 34 <CACR_CLEAR+0x2c>
    1c94:	4855           	pea %a5@
    1c96:	4eb9 000a 1d16 	jsr a1d16 <_tmcmd>
    1c9c:	504f           	addqw #8,%sp
    1c9e:	2e2d 0012      	movel %a5@(18),%d7
    1ca2:	6012           	bras 1cb6 <RST+0x1b7a>
    1ca4:	42ad 0026      	clrl %a5@(38)
    1ca8:	4878 0044      	pea 44 <CACR_CLEAR+0x3c>
    1cac:	4855           	pea %a5@
    1cae:	4eb9 000a 1d16 	jsr a1d16 <_tmcmd>
    1cb4:	504f           	addqw #8,%sp
    1cb6:	51cf ffec      	dbf %d7,1ca4 <RST+0x1b68>
    1cba:	4247           	clrw %d7
    1cbc:	5387           	subql #1,%d7
    1cbe:	64e4           	bccs 1ca4 <RST+0x1b68>
    1cc0:	7000           	moveq #0,%d0
    1cc2:	4cee 2080 fff8 	moveml %fp@(-8),%d7/%a5
    1cc8:	4e5e           	unlk %fp
    1cca:	4e75           	rts
    1ccc:	4e56 0000      	linkw %fp,#0
    1cd0:	4878 0034      	pea 34 <CACR_CLEAR+0x2c>
    1cd4:	2f2e 0008      	movel %fp@(8),%sp@-
    1cd8:	4eb9 000a 1d16 	jsr a1d16 <_tmcmd>
    1cde:	504f           	addqw #8,%sp
    1ce0:	4e5e           	unlk %fp
    1ce2:	4e75           	rts
    1ce4:	4e56 fff8      	linkw %fp,#-8
    1ce8:	2e8d           	movel %a5,%sp@
    1cea:	2a6e 0008      	moveal %fp@(8),%a5
    1cee:	0cae 0000 0002 	cmpil #2,%fp@(12)
    1cf4:	000c 
    1cf6:	6604           	bnes 1cfc <RST+0x1bc0>
    1cf8:	7030           	moveq #48,%d0
    1cfa:	6002           	bras 1cfe <RST+0x1bc2>
    1cfc:	702c           	moveq #44,%d0
    1cfe:	2d40 fffc      	movel %d0,%fp@(-4)
    1d02:	2f00           	movel %d0,%sp@-
    1d04:	4855           	pea %a5@
    1d06:	4eb9 000a 1d16 	jsr a1d16 <_tmcmd>
    1d0c:	504f           	addqw #8,%sp
    1d0e:	2a6e fff8      	moveal %fp@(-8),%a5
    1d12:	4e5e           	unlk %fp
    1d14:	4e75           	rts
    1d16:	4e56 ffe4      	linkw %fp,#-28
    1d1a:	48d7 3800      	moveml %a3-%a5,%sp@
    1d1e:	2a6e 0008      	moveal %fp@(8),%a5
    1d22:	286d 002e      	moveal %a5@(46),%a4
    1d26:	266d 0032      	moveal %a5@(50),%a3
    1d2a:	720c           	moveq #12,%d1
    1d2c:	d7c1           	addal %d1,%a3
    1d2e:	7201           	moveq #1,%d1
    1d30:	2d41 fffc      	movel %d1,%fp@(-4)
    1d34:	42ae fff8      	clrl %fp@(-8)
    1d38:	202e 000c      	movel %fp@(12),%d0
    1d3c:	722c           	moveq #44,%d1
    1d3e:	b081           	cmpl %d1,%d0
    1d40:	6708           	beqs 1d4a <RST+0x1c0e>
    1d42:	7230           	moveq #48,%d1
    1d44:	b081           	cmpl %d1,%d0
    1d46:	670a           	beqs 1d52 <RST+0x1c16>
    1d48:	602a           	bras 1d74 <RST+0x1c38>
    1d4a:	2d6d 0026 fff8 	movel %a5@(38),%fp@(-8)
    1d50:	6022           	bras 1d74 <RST+0x1c38>
    1d52:	2d6d 0026 fff8 	movel %a5@(38),%fp@(-8)
    1d58:	2f2e fff8      	movel %fp@(-8),%sp@-
    1d5c:	202d 0032      	movel %a5@(50),%d0
    1d60:	7222           	moveq #34,%d1
    1d62:	d081           	addl %d1,%d0
    1d64:	2f00           	movel %d0,%sp@-
    1d66:	2f2d 0022      	movel %a5@(34),%sp@-
    1d6a:	4eb9 000a 5c40 	jsr a5c40 <_swab>
    1d70:	4fef 000c      	lea %sp@(12),%sp
    1d74:	4878 0016      	pea 16 <CACR_CLEAR+0xe>
    1d78:	4853           	pea %a3@
    1d7a:	4eb9 000a 4f44 	jsr a4f44 <_bzero>
    1d80:	504f           	addqw #8,%sp
    1d82:	202e 000c      	movel %fp@(12),%d0
    1d86:	72fe           	moveq #-2,%d1
    1d88:	c081           	andl %d1,%d0
    1d8a:	3680           	movew %d0,%a3@
    1d8c:	102e 000f      	moveb %fp@(15),%d0
    1d90:	7201           	moveq #1,%d1
    1d92:	c081           	andl %d1,%d0
    1d94:	022b fffb 0004 	andib #-5,%a3@(4)
    1d9a:	c001           	andb %d1,%d0
    1d9c:	e588           	lsll #2,%d0
    1d9e:	812b 0004      	orb %d0,%a3@(4)
    1da2:	08eb 0007 0004 	bset #7,%a3@(4)
    1da8:	202d 000e      	movel %a5@(14),%d0
    1dac:	7208           	moveq #8,%d1
    1dae:	c081           	andl %d1,%d0
    1db0:	022b fff7 0004 	andib #-9,%a3@(4)
    1db6:	0200 0001      	andib #1,%d0
    1dba:	e788           	lsll #3,%d0
    1dbc:	812b 0004      	orb %d0,%a3@(4)
    1dc0:	202d 000e      	movel %a5@(14),%d0
    1dc4:	7203           	moveq #3,%d1
    1dc6:	c081           	andl %d1,%d0
    1dc8:	022b fff3 0005 	andib #-13,%a3@(5)
    1dce:	c001           	andb %d1,%d0
    1dd0:	e588           	lsll #2,%d0
    1dd2:	812b 0005      	orb %d0,%a3@(5)
    1dd6:	376e fffe 000a 	movew %fp@(-2),%a3@(10)
    1ddc:	376e fffa 0008 	movew %fp@(-6),%a3@(8)
    1de2:	486b 000c      	pea %a3@(12)
    1de6:	202d 0032      	movel %a5@(50),%d0
    1dea:	7222           	moveq #34,%d1
    1dec:	d081           	addl %d1,%d0
    1dee:	2f00           	movel %d0,%sp@-
    1df0:	4eb9 000a 2036 	jsr a2036 <_c68t86>
    1df6:	504f           	addqw #8,%sp
    1df8:	206d 0032      	moveal %a5@(50),%a0
    1dfc:	117c 00ff 0006 	moveb #-1,%a0@(6)
    1e02:	197c 0001 0001 	moveb #1,%a4@(1)
    1e08:	206d 0032      	moveal %a5@(50),%a0
    1e0c:	0c28 00ff 0006 	cmpib #-1,%a0@(6)
    1e12:	67f4           	beqs 1e08 <RST+0x1ccc>
    1e14:	41eb 0010      	lea %a3@(16),%a0
    1e18:	3d50 fff6      	movew %a0@,%fp@(-10)
    1e1c:	7000           	moveq #0,%d0
    1e1e:	102e fff6      	moveb %fp@(-10),%d0
    1e22:	0200 001f      	andib #31,%d0
    1e26:	2d40 fff0      	movel %d0,%fp@(-16)
    1e2a:	0cae 0000 0009 	cmpil #9,%fp@(-16)
    1e30:	fff0 
    1e32:	660e           	bnes 1e42 <RST+0x1d06>
    1e34:	082e 0005 fff7 	btst #5,%fp@(-9)
    1e3a:	6706           	beqs 1e42 <RST+0x1d06>
    1e3c:	42ae fff0      	clrl %fp@(-16)
    1e40:	6040           	bras 1e82 <RST+0x1d46>
    1e42:	4aae fff0      	tstl %fp@(-16)
    1e46:	673a           	beqs 1e82 <RST+0x1d46>
    1e48:	0cae 0000 000f 	cmpil #15,%fp@(-16)
    1e4e:	fff0 
    1e50:	6730           	beqs 1e82 <RST+0x1d46>
    1e52:	0cae 0000 0015 	cmpil #21,%fp@(-16)
    1e58:	fff0 
    1e5a:	670a           	beqs 1e66 <RST+0x1d2a>
    1e5c:	0cae 0000 0009 	cmpil #9,%fp@(-16)
    1e62:	fff0 
    1e64:	6604           	bnes 1e6a <RST+0x1d2e>
    1e66:	7000           	moveq #0,%d0
    1e68:	6048           	bras 1eb2 <RST+0x1d76>
    1e6a:	2f2e fff0      	movel %fp@(-16),%sp@-
    1e6e:	4879 000a 61a8 	pea a61a8 <_mtdriver+0x20>
    1e74:	2079 0fef 0084 	moveal fef0084 <_end+0xfe34a70>,%a0
    1e7a:	4e90           	jsr %a0@
    1e7c:	504f           	addqw #8,%sp
    1e7e:	70ff           	moveq #-1,%d0
    1e80:	6030           	bras 1eb2 <RST+0x1d76>
    1e82:	0cae 0000 002c 	cmpil #44,%fp@(12)
    1e88:	000c 
    1e8a:	6620           	bnes 1eac <RST+0x1d70>
    1e8c:	7000           	moveq #0,%d0
    1e8e:	302b 0006      	movew %a3@(6),%d0
    1e92:	2f00           	movel %d0,%sp@-
    1e94:	2f2d 0022      	movel %a5@(34),%sp@-
    1e98:	202d 0032      	movel %a5@(50),%d0
    1e9c:	7222           	moveq #34,%d1
    1e9e:	d081           	addl %d1,%d0
    1ea0:	2f00           	movel %d0,%sp@-
    1ea2:	4eb9 000a 5c40 	jsr a5c40 <_swab>
    1ea8:	4fef 000c      	lea %sp@(12),%sp
    1eac:	7000           	moveq #0,%d0
    1eae:	302b 0006      	movew %a3@(6),%d0
    1eb2:	4cee 3800 ffe4 	moveml %fp@(-28),%a3-%a5
    1eb8:	4e5e           	unlk %fp
    1eba:	4e75           	rts
    1ebc:	4e56 ffe0      	linkw %fp,#-32
    1ec0:	48d7 3c80      	moveml %d7/%a2-%a5,%sp@
    1ec4:	2a6e 0008      	moveal %fp@(8),%a5
    1ec8:	286d 0032      	moveal %a5@(50),%a4
    1ecc:	266d 002e      	moveal %a5@(46),%a3
    1ed0:	45ec 000c      	lea %a4@(12),%a2
    1ed4:	4878 0022      	pea 22 <CACR_CLEAR+0x1a>
    1ed8:	4854           	pea %a4@
    1eda:	4eb9 000a 4f44 	jsr a4f44 <_bzero>
    1ee0:	504f           	addqw #8,%sp
    1ee2:	16bc 0001      	moveb #1,%a3@
    1ee6:	18bc 0003      	moveb #3,%a4@
    1eea:	1954 0001      	moveb %a4@,%a4@(1)
    1eee:	486c 0002      	pea %a4@(2)
    1ef2:	486c 0006      	pea %a4@(6)
    1ef6:	4eb9 000a 2036 	jsr a2036 <_c68t86>
    1efc:	504f           	addqw #8,%sp
    1efe:	197c 00ff 0006 	moveb #-1,%a4@(6)
    1f04:	2d7c 00f0 1106 	movel #15732998,%fp@(-4)
    1f0a:	fffc 
    1f0c:	2f3c 00f0 1106 	movel #15732998,%sp@-
    1f12:	4eb9 000a 1564 	jsr a1564 <_getpgmap>
    1f18:	584f           	addqw #4,%sp
    1f1a:	2d40 fff4      	movel %d0,%fp@(-12)
    1f1e:	4878 0006      	pea 6 <SUPCONTEXTOFF>
    1f22:	42a7           	clrl %sp@-
    1f24:	4eb9 000a 13b8 	jsr a13b8 <_resalloc>
    1f2a:	504f           	addqw #8,%sp
    1f2c:	2d40 fff8      	movel %d0,%fp@(-8)
    1f30:	2f00           	movel %d0,%sp@-
    1f32:	4eb9 000a 1564 	jsr a1564 <_getpgmap>
    1f38:	584f           	addqw #4,%sp
    1f3a:	2f00           	movel %d0,%sp@-
    1f3c:	2f2e fffc      	movel %fp@(-4),%sp@-
    1f40:	4eb9 000a 1584 	jsr a1584 <_setpgmap>
    1f46:	504f           	addqw #8,%sp
    1f48:	206e fffc      	moveal %fp@(-4),%a0
    1f4c:	10bc 0001      	moveb #1,%a0@
    1f50:	1150 0001      	moveb %a0@,%a0@(1)
    1f54:	202e fffc      	movel %fp@(-4),%d0
    1f58:	5480           	addql #2,%d0
    1f5a:	2f00           	movel %d0,%sp@-
    1f5c:	4854           	pea %a4@
    1f5e:	4eb9 000a 2036 	jsr a2036 <_c68t86>
    1f64:	504f           	addqw #8,%sp
    1f66:	177c 0001 0001 	moveb #1,%a3@(1)
    1f6c:	2e3c 000f 4240 	movel #1000000,%d7
    1f72:	4a2c 0006      	tstb %a4@(6)
    1f76:	661c           	bnes 1f94 <RST+0x1e58>
    1f78:	601e           	bras 1f98 <RST+0x1e5c>
    1f7a:	2f2d 000a      	movel %a5@(10),%sp@-
    1f7e:	4879 000a 61b8 	pea a61b8 <_mtdriver+0x30>
    1f84:	2079 0fef 0084 	moveal fef0084 <_end+0xfe34a70>,%a0
    1f8a:	4e90           	jsr %a0@
    1f8c:	504f           	addqw #8,%sp
    1f8e:	70ff           	moveq #-1,%d0
    1f90:	6000 009a      	braw 202c <RST+0x1ef0>
    1f94:	5387           	subql #1,%d7
    1f96:	6eda           	bgts 1f72 <RST+0x1e36>
    1f98:	2f2e fff4      	movel %fp@(-12),%sp@-
    1f9c:	2f2e fffc      	movel %fp@(-4),%sp@-
    1fa0:	4eb9 000a 1584 	jsr a1584 <_setpgmap>
    1fa6:	504f           	addqw #8,%sp
    1fa8:	4a87           	tstl %d7
    1faa:	6fce           	bles 1f7a <RST+0x1e3e>
    1fac:	197c 0011 0007 	moveb #17,%a4@(7)
    1fb2:	486c 0008      	pea %a4@(8)
    1fb6:	4852           	pea %a2@
    1fb8:	4eb9 000a 2036 	jsr a2036 <_c68t86>
    1fbe:	504f           	addqw #8,%sp
    1fc0:	4878 0016      	pea 16 <CACR_CLEAR+0xe>
    1fc4:	4852           	pea %a2@
    1fc6:	4eb9 000a 4f44 	jsr a4f44 <_bzero>
    1fcc:	504f           	addqw #8,%sp
    1fce:	4252           	clrw %a2@
    1fd0:	426a 0002      	clrw %a2@(2)
    1fd4:	08ea 0007 0004 	bset #7,%a2@(4)
    1fda:	4a2c 0006      	tstb %a4@(6)
    1fde:	66fa           	bnes 1fda <RST+0x1e9e>
    1fe0:	197c 00ff 0006 	moveb #-1,%a4@(6)
    1fe6:	177c 0001 0001 	moveb #1,%a3@(1)
    1fec:	0c2c 00ff 0006 	cmpib #-1,%a4@(6)
    1ff2:	67f8           	beqs 1fec <RST+0x1eb0>
    1ff4:	102a 0010      	moveb %a2@(16),%d0
    1ff8:	0200 001f      	andib #31,%d0
    1ffc:	672c           	beqs 202a <RST+0x1eee>
    1ffe:	2f2d 000a      	movel %a5@(10),%sp@-
    2002:	7000           	moveq #0,%d0
    2004:	102a 0010      	moveb %a2@(16),%d0
    2008:	0200 001f      	andib #31,%d0
    200c:	2f00           	movel %d0,%sp@-
    200e:	4879 000a 61d6 	pea a61d6 <_mtdriver+0x4e>
    2014:	2079 0fef 0084 	moveal fef0084 <_end+0xfe34a70>,%a0
    201a:	4e90           	jsr %a0@
    201c:	4fef 000c      	lea %sp@(12),%sp
    2020:	022a ffe0 0010 	andib #-32,%a2@(16)
    2026:	70ff           	moveq #-1,%d0
    2028:	6002           	bras 202c <RST+0x1ef0>
    202a:	7000           	moveq #0,%d0
    202c:	4cee 3c80 ffe0 	moveml %fp@(-32),%d7/%a2-%a5
    2032:	4e5e           	unlk %fp
    2034:	4e75           	rts
    2036:	4e56 0000      	linkw %fp,#0
    203a:	02ae 000f ffff 	andil #1048575,%fp@(8)
    2040:	0008 
    2042:	206e 000c      	moveal %fp@(12),%a0
    2046:	30ae 000a      	movew %fp@(10),%a0@
    204a:	206e 000c      	moveal %fp@(12),%a0
    204e:	202e 0008      	movel %fp@(8),%d0
    2052:	0280 000f 0000 	andil #983040,%d0
    2058:	e880           	asrl #4,%d0
    205a:	3140 0002      	movew %d0,%a0@(2)
    205e:	4e5e           	unlk %fp
    2060:	4e75           	rts
    2062:	0000 4e56      	orib #86,%d0
    2066:	ffe8           	.short 0xffe8
    2068:	48d7 38c0      	moveml %d6-%d7/%a3-%a5,%sp@
    206c:	2a6e 0008      	moveal %fp@(8),%a5
    2070:	286d 0006      	moveal %a5@(6),%a4
    2074:	296d 002e 0020 	movel %a5@(46),%a4@(32)
    207a:	266c 0020      	moveal %a4@(32),%a3
    207e:	422c 0018      	clrb %a4@(24)
    2082:	7e01           	moveq #1,%d7
    2084:	2887           	movel %d7,%a4@
    2086:	42ac 000e      	clrl %a4@(14)
    208a:	297c 001f f001 	movel #2093057,%a4@(18)
    2090:	0012 
    2092:	422c 0016      	clrb %a4@(22)
    2096:	422c 0017      	clrb %a4@(23)
    209a:	422c 001e      	clrb %a4@(30)
    209e:	422c 001f      	clrb %a4@(31)
    20a2:	1947 0024      	moveb %d7,%a4@(36)
    20a6:	422c 0025      	clrb %a4@(37)
    20aa:	422c 0026      	clrb %a4@(38)
    20ae:	197c ffff 0027 	moveb #-1,%a4@(39)
    20b4:	1747 0007      	moveb %d7,%a3@(7)
    20b8:	08ab 0004 0003 	bclr #4,%a3@(3)
    20be:	0fab 0003      	bclr %d7,%a3@(3)
    20c2:	08ab 0003 0003 	bclr #3,%a3@(3)
    20c8:	08ab 0005 0003 	bclr #5,%a3@(3)
    20ce:	08ab 0006 0003 	bclr #6,%a3@(3)
    20d4:	08ab 0007 0003 	bclr #7,%a3@(3)
    20da:	082b 0000 0003 	btst #0,%a3@(3)
    20e0:	671e           	beqs 2100 <RST+0x1fc4>
    20e2:	4ab9 000a 6248 	tstl a6248 <_ardebug>
    20e8:	6710           	beqs 20fa <RST+0x1fbe>
    20ea:	4879 000a 6328 	pea a6328 <_ar_cmds+0x32>
    20f0:	2079 0fef 0084 	moveal fef0084 <_end+0xfe34a70>,%a0
    20f6:	4e90           	jsr %a0@
    20f8:	584f           	addqw #4,%sp
    20fa:	08ab 0000 0003 	bclr #0,%a3@(3)
    2100:	2e3c 000f 4240 	movel #1000000,%d7
    2106:	600e           	bras 2116 <RST+0x1fda>
    2108:	082b 0002 0005 	btst #2,%a3@(5)
    210e:	660e           	bnes 211e <RST+0x1fe2>
    2110:	4a87           	tstl %d7
    2112:	670a           	beqs 211e <RST+0x1fe2>
    2114:	5387           	subql #1,%d7
    2116:	082b 0000 0005 	btst #0,%a3@(5)
    211c:	67ea           	beqs 2108 <RST+0x1fcc>
    211e:	4a87           	tstl %d7
    2120:	661a           	bnes 213c <RST+0x2000>
    2122:	4ab9 000a 6248 	tstl a6248 <_ardebug>
    2128:	6712           	beqs 213c <RST+0x2000>
    212a:	4853           	pea %a3@
    212c:	4879 000a 633d 	pea a633d <_ar_cmds+0x47>
    2132:	2079 0fef 0084 	moveal fef0084 <_end+0xfe34a70>,%a0
    2138:	4e90           	jsr %a0@
    213a:	504f           	addqw #8,%sp
    213c:	082b 0000 0005 	btst #0,%a3@(5)
    2142:	6718           	beqs 215c <RST+0x2020>
    2144:	4ab9 000a 6248 	tstl a6248 <_ardebug>
    214a:	6710           	beqs 215c <RST+0x2020>
    214c:	4879 000a 6362 	pea a6362 <_ar_cmds+0x6c>
    2152:	2079 0fef 0084 	moveal fef0084 <_end+0xfe34a70>,%a0
    2158:	4e90           	jsr %a0@
    215a:	584f           	addqw #4,%sp
    215c:	082b 0002 0005 	btst #2,%a3@(5)
    2162:	6718           	beqs 217c <RST+0x2040>
    2164:	4ab9 000a 6248 	tstl a6248 <_ardebug>
    216a:	6710           	beqs 217c <RST+0x2040>
    216c:	4879 000a 6381 	pea a6381 <_ar_cmds+0x8b>
    2172:	2079 0fef 0084 	moveal fef0084 <_end+0xfe34a70>,%a0
    2178:	4e90           	jsr %a0@
    217a:	584f           	addqw #4,%sp
    217c:	08eb 0002 0003 	bset #2,%a3@(3)
    2182:	2c3c 0000 0190 	movel #400,%d6
    2188:	2239 000a 5da6 	movel a5da6 <_cpudelay>,%d1
    218e:	e2a6           	asrl %d1,%d6
    2190:	5386           	subql #1,%d6
    2192:	6efc           	bgts 2190 <RST+0x2054>
    2194:	08ab 0002 0003 	bclr #2,%a3@(3)
    219a:	2e3c 000f 4240 	movel #1000000,%d7
    21a0:	6006           	bras 21a8 <RST+0x206c>
    21a2:	4a87           	tstl %d7
    21a4:	670a           	beqs 21b0 <RST+0x2074>
    21a6:	5387           	subql #1,%d7
    21a8:	082b 0002 0005 	btst #2,%a3@(5)
    21ae:	67f2           	beqs 21a2 <RST+0x2066>
    21b0:	4a87           	tstl %d7
    21b2:	661e           	bnes 21d2 <RST+0x2096>
    21b4:	4ab9 000a 6248 	tstl a6248 <_ardebug>
    21ba:	6700 0176      	beqw 2332 <RST+0x21f6>
    21be:	4879 000a 63a0 	pea a63a0 <_ar_cmds+0xaa>
    21c4:	2079 0fef 0084 	moveal fef0084 <_end+0xfe34a70>,%a0
    21ca:	4e90           	jsr %a0@
    21cc:	584f           	addqw #4,%sp
    21ce:	6000 0162      	braw 2332 <RST+0x21f6>
    21d2:	197c 0001 0016 	moveb #1,%a4@(22)
    21d8:	197c 0001 0017 	moveb #1,%a4@(23)
    21de:	08eb 0000 0003 	bset #0,%a3@(3)
    21e4:	4878 0002      	pea 2 <CACR_ENABLE+0x1>
    21e8:	4854           	pea %a4@
    21ea:	4eb9 000a 2412 	jsr a2412 <_arcmd>
    21f0:	504f           	addqw #8,%sp
    21f2:	4a80           	tstl %d0
    21f4:	6726           	beqs 221c <RST+0x20e0>
    21f6:	4ab9 000a 6248 	tstl a6248 <_ardebug>
    21fc:	6710           	beqs 220e <RST+0x20d2>
    21fe:	4879 000a 63cf 	pea a63cf <_ar_cmds+0xd9>
    2204:	2079 0fef 0084 	moveal fef0084 <_end+0xfe34a70>,%a0
    220a:	4e90           	jsr %a0@
    220c:	584f           	addqw #4,%sp
    220e:	08ab 0000 0003 	bclr #0,%a3@(3)
    2214:	422c 0016      	clrb %a4@(22)
    2218:	6000 0114      	braw 232e <RST+0x21f2>
    221c:	08ec 0003 0009 	bset #3,%a4@(9)
    2222:	08eb 0000 0003 	bset #0,%a3@(3)
    2228:	422c 0026      	clrb %a4@(38)
    222c:	4878 000b      	pea b <CACR_CLEAR+0x3>
    2230:	4854           	pea %a4@
    2232:	4eb9 000a 2412 	jsr a2412 <_arcmd>
    2238:	504f           	addqw #8,%sp
    223a:	4a2c 0026      	tstb %a4@(38)
    223e:	6766           	beqs 22a6 <RST+0x216a>
    2240:	4878 0002      	pea 2 <CACR_ENABLE+0x1>
    2244:	4854           	pea %a4@
    2246:	4eb9 000a 2412 	jsr a2412 <_arcmd>
    224c:	504f           	addqw #8,%sp
    224e:	4a80           	tstl %d0
    2250:	671e           	beqs 2270 <RST+0x2134>
    2252:	4ab9 000a 6248 	tstl a6248 <_ardebug>
    2258:	6700 00c0      	beqw 231a <RST+0x21de>
    225c:	4879 000a 63f2 	pea a63f2 <_ar_cmds+0xfc>
    2262:	2079 0fef 0084 	moveal fef0084 <_end+0xfe34a70>,%a0
    2268:	4e90           	jsr %a0@
    226a:	584f           	addqw #4,%sp
    226c:	6000 00ac      	braw 231a <RST+0x21de>
    2270:	082c 0005 0008 	btst #5,%a4@(8)
    2276:	6714           	beqs 228c <RST+0x2150>
    2278:	4879 000a 6410 	pea a6410 <_ar_cmds+0x11a>
    227e:	2079 0fef 0084 	moveal fef0084 <_end+0xfe34a70>,%a0
    2284:	4e90           	jsr %a0@
    2286:	584f           	addqw #4,%sp
    2288:	6000 0090      	braw 231a <RST+0x21de>
    228c:	082c 0006 0008 	btst #6,%a4@(8)
    2292:	6712           	beqs 22a6 <RST+0x216a>
    2294:	4879 000a 641e 	pea a641e <_ar_cmds+0x128>
    229a:	2079 0fef 0084 	moveal fef0084 <_end+0xfe34a70>,%a0
    22a0:	4e90           	jsr %a0@
    22a2:	584f           	addqw #4,%sp
    22a4:	6074           	bras 231a <RST+0x21de>
    22a6:	0815 0001      	btst #1,%a5@
    22aa:	671a           	beqs 22c6 <RST+0x218a>
    22ac:	082c 0004 0008 	btst #4,%a4@(8)
    22b2:	6712           	beqs 22c6 <RST+0x218a>
    22b4:	4879 000a 6439 	pea a6439 <_ar_cmds+0x143>
    22ba:	2079 0fef 0084 	moveal fef0084 <_end+0xfe34a70>,%a0
    22c0:	4e90           	jsr %a0@
    22c2:	584f           	addqw #4,%sp
    22c4:	6054           	bras 231a <RST+0x21de>
    22c6:	422c 0018      	clrb %a4@(24)
    22ca:	2d6d 0012 fffc 	movel %a5@(18),%fp@(-4)
    22d0:	601c           	bras 22ee <RST+0x21b2>
    22d2:	4878 000a      	pea a <CACR_CLEAR+0x2>
    22d6:	4854           	pea %a4@
    22d8:	4eb9 000a 2412 	jsr a2412 <_arcmd>
    22de:	504f           	addqw #8,%sp
    22e0:	4878 0002      	pea 2 <CACR_ENABLE+0x1>
    22e4:	4854           	pea %a4@
    22e6:	4eb9 000a 2412 	jsr a2412 <_arcmd>
    22ec:	504f           	addqw #8,%sp
    22ee:	202e fffc      	movel %fp@(-4),%d0
    22f2:	53ae fffc      	subql #1,%fp@(-4)
    22f6:	4a80           	tstl %d0
    22f8:	66d8           	bnes 22d2 <RST+0x2196>
    22fa:	422c 0025      	clrb %a4@(37)
    22fe:	4ab9 000a 6248 	tstl a6248 <_ardebug>
    2304:	6710           	beqs 2316 <RST+0x21da>
    2306:	4879 000a 645b 	pea a645b <_ar_cmds+0x165>
    230c:	2079 0fef 0084 	moveal fef0084 <_end+0xfe34a70>,%a0
    2312:	4e90           	jsr %a0@
    2314:	584f           	addqw #4,%sp
    2316:	7000           	moveq #0,%d0
    2318:	601a           	bras 2334 <RST+0x21f8>
    231a:	4878 0008      	pea 8 <CACR_CLEAR>
    231e:	4854           	pea %a4@
    2320:	4eb9 000a 2412 	jsr a2412 <_arcmd>
    2326:	504f           	addqw #8,%sp
    2328:	08ab 0000 0003 	bclr #0,%a3@(3)
    232e:	422c 0017      	clrb %a4@(23)
    2332:	70ff           	moveq #-1,%d0
    2334:	4cee 38c0 ffe8 	moveml %fp@(-24),%d6-%d7/%a3-%a5
    233a:	4e5e           	unlk %fp
    233c:	4e75           	rts
    233e:	4e56 fff8      	linkw %fp,#-8
    2342:	48d7 3000      	moveml %a4-%a5,%sp@
    2346:	206e 0008      	moveal %fp@(8),%a0
    234a:	2a68 0006      	moveal %a0@(6),%a5
    234e:	286d 0020      	moveal %a5@(32),%a4
    2352:	42a7           	clrl %sp@-
    2354:	4855           	pea %a5@
    2356:	4eb9 000a 2412 	jsr a2412 <_arcmd>
    235c:	504f           	addqw #8,%sp
    235e:	08ec 0000 0003 	bset #0,%a4@(3)
    2364:	4878 0002      	pea 2 <CACR_ENABLE+0x1>
    2368:	4855           	pea %a5@
    236a:	4eb9 000a 2412 	jsr a2412 <_arcmd>
    2370:	504f           	addqw #8,%sp
    2372:	4878 0008      	pea 8 <CACR_CLEAR>
    2376:	4855           	pea %a5@
    2378:	4eb9 000a 2412 	jsr a2412 <_arcmd>
    237e:	504f           	addqw #8,%sp
    2380:	1b7c ffff 0027 	moveb #-1,%a5@(39)
    2386:	422d 0025      	clrb %a5@(37)
    238a:	422d 0017      	clrb %a5@(23)
    238e:	4ab9 000a 6248 	tstl a6248 <_ardebug>
    2394:	6710           	beqs 23a6 <RST+0x226a>
    2396:	4879 000a 646c 	pea a646c <_ar_cmds+0x176>
    239c:	2079 0fef 0084 	moveal fef0084 <_end+0xfe34a70>,%a0
    23a2:	4e90           	jsr %a0@
    23a4:	584f           	addqw #4,%sp
    23a6:	4cee 3000 fff8 	moveml %fp@(-8),%a4-%a5
    23ac:	4e5e           	unlk %fp
    23ae:	4e75           	rts
    23b0:	4e56 fff4      	linkw %fp,#-12
    23b4:	48d7 3000      	moveml %a4-%a5,%sp@
    23b8:	2a6e 0008      	moveal %fp@(8),%a5
    23bc:	286d 0006      	moveal %a5@(6),%a4
    23c0:	0cae 0000 0002 	cmpil #2,%fp@(12)
    23c6:	000c 
    23c8:	6604           	bnes 23ce <RST+0x2292>
    23ca:	7004           	moveq #4,%d0
    23cc:	6002           	bras 23d0 <RST+0x2294>
    23ce:	7003           	moveq #3,%d0
    23d0:	2d40 fffc      	movel %d0,%fp@(-4)
    23d4:	4a2c 0025      	tstb %a4@(37)
    23d8:	6708           	beqs 23e2 <RST+0x22a6>
    23da:	422c 0025      	clrb %a4@(37)
    23de:	7000           	moveq #0,%d0
    23e0:	6026           	bras 2408 <RST+0x22cc>
    23e2:	296d 0026 000e 	movel %a5@(38),%a4@(14)
    23e8:	296d 0022 0012 	movel %a5@(34),%a4@(18)
    23ee:	2f2e fffc      	movel %fp@(-4),%sp@-
    23f2:	4854           	pea %a4@
    23f4:	4eb9 000a 2412 	jsr a2412 <_arcmd>
    23fa:	504f           	addqw #8,%sp
    23fc:	4a80           	tstl %d0
    23fe:	6704           	beqs 2404 <RST+0x22c8>
    2400:	70ff           	moveq #-1,%d0
    2402:	6004           	bras 2408 <RST+0x22cc>
    2404:	202d 0026      	movel %a5@(38),%d0
    2408:	4cee 3000 fff4 	moveml %fp@(-12),%a4-%a5
    240e:	4e5e           	unlk %fp
    2410:	4e75           	rts
    2412:	4e56 fff8      	linkw %fp,#-8
    2416:	2e8d           	movel %a5,%sp@
    2418:	2a6e 0008      	moveal %fp@(8),%a5
    241c:	2d6d 0020 fffc 	movel %a5@(32),%fp@(-4)
    2422:	4a2d 0017      	tstb %a5@(23)
    2426:	6606           	bnes 242e <RST+0x22f2>
    2428:	70ff           	moveq #-1,%d0
    242a:	6000 00e0      	braw 250c <RST+0x23d0>
    242e:	202e 000c      	movel %fp@(12),%d0
    2432:	e580           	asll #2,%d0
    2434:	41f9 000a 62f6 	lea a62f6 <_ar_cmds>,%a0
    243a:	2ab0 0800      	movel %a0@(00000000,%d0:l),%a5@
    243e:	206e fffc      	moveal %fp@(-4),%a0
    2442:	0828 0002 0005 	btst #2,%a0@(5)
    2448:	6700 008e      	beqw 24d8 <RST+0x239c>
    244c:	0c95 0000 000a 	cmpil #10,%a5@
    2452:	6700 0092      	beqw 24e6 <RST+0x23aa>
    2456:	4ab9 000a 6248 	tstl a6248 <_ardebug>
    245c:	6712           	beqs 2470 <RST+0x2334>
    245e:	2f15           	movel %a5@,%sp@-
    2460:	4879 000a 647e 	pea a647e <_ar_cmds+0x188>
    2466:	2079 0fef 0084 	moveal fef0084 <_end+0xfe34a70>,%a0
    246c:	4e90           	jsr %a0@
    246e:	504f           	addqw #8,%sp
    2470:	2b55 0004      	movel %a5@,%a5@(4)
    2474:	720a           	moveq #10,%d1
    2476:	2a81           	movel %d1,%a5@
    2478:	206e fffc      	moveal %fp@(-4),%a0
    247c:	08a8 0005 0003 	bclr #5,%a0@(3)
    2482:	206e fffc      	moveal %fp@(-4),%a0
    2486:	08e8 0005 0003 	bset #5,%a0@(3)
    248c:	6010           	bras 249e <RST+0x2362>
    248e:	4879 000a 649f 	pea a649f <_ar_cmds+0x1a9>
    2494:	2079 0fef 0084 	moveal fef0084 <_end+0xfe34a70>,%a0
    249a:	4e90           	jsr %a0@
    249c:	584f           	addqw #4,%sp
    249e:	4855           	pea %a5@
    24a0:	4eb9 000a 2514 	jsr a2514 <_armachine>
    24a6:	584f           	addqw #4,%sp
    24a8:	4a80           	tstl %d0
    24aa:	67e2           	beqs 248e <RST+0x2352>
    24ac:	082d 0000 0008 	btst #0,%a5@(8)
    24b2:	661c           	bnes 24d0 <RST+0x2394>
    24b4:	7000           	moveq #0,%d0
    24b6:	302d 0008      	movew %a5@(8),%d0
    24ba:	2f00           	movel %d0,%sp@-
    24bc:	4879 000a 64be 	pea a64be <_ar_cmds+0x1c8>
    24c2:	2079 0fef 0084 	moveal fef0084 <_end+0xfe34a70>,%a0
    24c8:	4e90           	jsr %a0@
    24ca:	504f           	addqw #8,%sp
    24cc:	7001           	moveq #1,%d0
    24ce:	603c           	bras 250c <RST+0x23d0>
    24d0:	1b7c 0001 0025 	moveb #1,%a5@(37)
    24d6:	6032           	bras 250a <RST+0x23ce>
    24d8:	206e fffc      	moveal %fp@(-4),%a0
    24dc:	0828 0000 0005 	btst #0,%a0@(5)
    24e2:	6700 ff5a      	beqw 243e <RST+0x2302>
    24e6:	206e fffc      	moveal %fp@(-4),%a0
    24ea:	08a8 0005 0003 	bclr #5,%a0@(3)
    24f0:	206e fffc      	moveal %fp@(-4),%a0
    24f4:	08e8 0005 0003 	bset #5,%a0@(3)
    24fa:	4855           	pea %a5@
    24fc:	4eb9 000a 2514 	jsr a2514 <_armachine>
    2502:	584f           	addqw #4,%sp
    2504:	4a80           	tstl %d0
    2506:	6700 ff36      	beqw 243e <RST+0x2302>
    250a:	7000           	moveq #0,%d0
    250c:	2a6e fff8      	moveal %fp@(-8),%a5
    2510:	4e5e           	unlk %fp
    2512:	4e75           	rts
    2514:	4e56 ffe4      	linkw %fp,#-28
    2518:	48d7 38f0      	moveml %d4-%d7/%a3-%a5,%sp@
    251c:	2a6e 0008      	moveal %fp@(8),%a5
    2520:	286d 0020      	moveal %a5@(32),%a4
    2524:	4ab9 000a 6248 	tstl a6248 <_ardebug>
    252a:	6718           	beqs 2544 <RST+0x2408>
    252c:	2f15           	movel %a5@,%sp@-
    252e:	4854           	pea %a4@
    2530:	4855           	pea %a5@
    2532:	4879 000a 64cc 	pea a64cc <_ar_cmds+0x1d6>
    2538:	2079 0fef 0084 	moveal fef0084 <_end+0xfe34a70>,%a0
    253e:	4e90           	jsr %a0@
    2540:	4fef 0010      	lea %sp@(16),%sp
    2544:	2015           	movel %a5@,%d0
    2546:	7e16           	moveq #22,%d7
    2548:	b087           	cmpl %d7,%d0
    254a:	6200 0390      	bhiw 28dc <HIGH+0x1dc>
    254e:	d040           	addw %d0,%d0
    2550:	303b 0006      	movew %pc@(2558 <RST+0x241c>,%d0:w),%d0
    2554:	4efb 0002      	jmp %pc@(2558 <RST+0x241c>,%d0:w)
    2558:	0348 0370      	movepl %a0@(880),%d1
    255c:	0336 0050      	btst %d1,%fp@(00000050,%d0:w)
    2560:	0066 0076      	oriw #118,%fp@-
    2564:	0086 0096 00a6 	oril #9830566,%d6
    256a:	00c0           	.short 0x00c0
    256c:	0182           	bclr %d0,%d2
    256e:	003c 01ca      	orib #-54,%ccr
    2572:	01c0           	bset %d0,%d0
    2574:	01da           	bset %d0,%a2@+
    2576:	0348 0370      	movepl %a0@(880),%d1
    257a:	027e           	.short 0x027e
    257c:	01c0           	bset %d0,%d0
    257e:	028e           	.short 0x028e
    2580:	0348 0370      	movepl %a0@(880),%d1
    2584:	002e 7e01 2a87 	orib #1,%fp@(10887)
    258a:	1b47 0026      	moveb %d7,%a5@(38)
    258e:	7001           	moveq #1,%d0
    2590:	6000 039e      	braw 2930 <HIGH+0x230>
    2594:	08ac 0000 0003 	bclr #0,%a4@(3)
    259a:	082c 0000 0005 	btst #0,%a4@(5)
    25a0:	6700 0356      	beqw 28f8 <HIGH+0x1f8>
    25a4:	6000 02f0      	braw 2896 <HIGH+0x196>
    25a8:	08ad 0003 0009 	bclr #3,%a5@(9)
    25ae:	197c 0060 0001 	moveb #96,%a4@(1)
    25b4:	08ec 0001 0003 	bset #1,%a4@(3)
    25ba:	6000 0344      	braw 2900 <HIGH+0x200>
    25be:	197c 00a0 0001 	moveb #-96,%a4@(1)
    25c4:	08ec 0001 0003 	bset #1,%a4@(3)
    25ca:	6000 0334      	braw 2900 <HIGH+0x200>
    25ce:	197c 0021 0001 	moveb #33,%a4@(1)
    25d4:	08ec 0001 0003 	bset #1,%a4@(3)
    25da:	6000 0324      	braw 2900 <HIGH+0x200>
    25de:	197c 0024 0001 	moveb #36,%a4@(1)
    25e4:	08ec 0001 0003 	bset #1,%a4@(3)
    25ea:	6000 0314      	braw 2900 <HIGH+0x200>
    25ee:	197c 0022 0001 	moveb #34,%a4@(1)
    25f4:	08ec 0001 0003 	bset #1,%a4@(3)
    25fa:	6000 0304      	braw 2900 <HIGH+0x200>
    25fe:	7001           	moveq #1,%d0
    2600:	122d 001e      	moveb %a5@(30),%d1
    2604:	e328           	lslb %d1,%d0
    2606:	0000 0010      	orib #16,%d0
    260a:	1940 0001      	moveb %d0,%a4@(1)
    260e:	08ec 0001 0003 	bset #1,%a4@(3)
    2614:	6000 02ea      	braw 2900 <HIGH+0x200>
    2618:	7001           	moveq #1,%d0
    261a:	122d 001e      	moveb %a5@(30),%d1
    261e:	e328           	lslb %d1,%d0
    2620:	1940 0001      	moveb %d0,%a4@(1)
    2624:	08ec 0001 0003 	bset #1,%a4@(3)
    262a:	6000 02d4      	braw 2900 <HIGH+0x200>
    262e:	08ac 0005 0003 	bclr #5,%a4@(3)
    2634:	08ec 0005 0003 	bset #5,%a4@(3)
    263a:	08ac 0001 0003 	bclr #1,%a4@(3)
    2640:	082c 0004 0005 	btst #4,%a4@(5)
    2646:	6700 00c4      	beqw 270c <HIGH+0xc>
    264a:	16ec 0001      	moveb %a4@(1),%a3@+
    264e:	08ac 0005 0003 	bclr #5,%a4@(3)
    2654:	08ec 0005 0003 	bset #5,%a4@(3)
    265a:	08ec 0001 0003 	bset #1,%a4@(3)
    2660:	283c 0000 01e0 	movel #480,%d4
    2666:	2239 000a 5da6 	movel a5da6 <_cpudelay>,%d1
    266c:	e2a4           	asrl %d1,%d4
    266e:	5384           	subql #1,%d4
    2670:	6efc           	bgts 266e <RST+0x2532>
    2672:	08ac 0001 0003 	bclr #1,%a4@(3)
    2678:	41ed 000e      	lea %a5@(14),%a0
    267c:	b7c8           	cmpal %a0,%a3
    267e:	65c0           	bcss 2640 <RST+0x2504>
    2680:	2b55 0004      	movel %a5@,%a5@(4)
    2684:	4295           	clrl %a5@
    2686:	4ab9 000a 6248 	tstl a6248 <_ardebug>
    268c:	672a           	beqs 26b8 <RST+0x257c>
    268e:	7000           	moveq #0,%d0
    2690:	302d 000c      	movew %a5@(12),%d0
    2694:	2f00           	movel %d0,%sp@-
    2696:	7000           	moveq #0,%d0
    2698:	302d 000a      	movew %a5@(10),%d0
    269c:	2f00           	movel %d0,%sp@-
    269e:	7000           	moveq #0,%d0
    26a0:	302d 0008      	movew %a5@(8),%d0
    26a4:	2f00           	movel %d0,%sp@-
    26a6:	4879 000a 650c 	pea a650c <_ar_cmds+0x216>
    26ac:	2079 0fef 0084 	moveal fef0084 <_end+0xfe34a70>,%a0
    26b2:	4e90           	jsr %a0@
    26b4:	4fef 0010      	lea %sp@(16),%sp
    26b8:	082c 0000 0005 	btst #0,%a4@(5)
    26be:	6600 01d6      	bnew 2896 <HIGH+0x196>
    26c2:	082c 0002 0005 	btst #2,%a4@(5)
    26c8:	67ee           	beqs 26b8 <RST+0x257c>
    26ca:	4879 000a 64e9 	pea a64e9 <_ar_cmds+0x1f3>
    26d0:	2079 0fef 0084 	moveal fef0084 <_end+0xfe34a70>,%a0
    26d6:	4e90           	jsr %a0@
    26d8:	584f           	addqw #4,%sp
    26da:	47ed 0008      	lea %a5@(8),%a3
    26de:	7e00           	moveq #0,%d7
    26e0:	0f2c 0005      	btst %d7,%a4@(5)
    26e4:	6702           	beqs 26e8 <RST+0x25ac>
    26e6:	7e01           	moveq #1,%d7
    26e8:	197c 00c0 0001 	moveb #-64,%a4@(1)
    26ee:	08ec 0001 0003 	bset #1,%a4@(3)
    26f4:	082c 0000 0005 	btst #0,%a4@(5)
    26fa:	6600 ff32      	bnew 262e <RST+0x24f2>
    26fe:	4a87           	tstl %d7
    2700:	67f2           	beqs 26f4 <RST+0x25b8>
    2702:	082c 0002 0005 	btst #2,%a4@(5)
    2708:	67ea           	beqs 26f4 <RST+0x25b8>
    270a:	60be           	bras 26ca <RST+0x258e>
    270c:	082c 0002 0005 	btst #2,%a4@(5)
    2712:	6700 ff2c      	beqw 2640 <RST+0x2504>
    2716:	60b2           	bras 26ca <RST+0x258e>
    2718:	08ac 0001 0003 	bclr #1,%a4@(3)
    271e:	6000 01d0      	braw 28f0 <HIGH+0x1f0>
    2722:	197c 0080 0001 	moveb #-128,%a4@(1)
    2728:	08ec 0001 0003 	bset #1,%a4@(3)
    272e:	6000 01c0      	braw 28f0 <HIGH+0x1f0>
    2732:	4ab9 000a 6248 	tstl a6248 <_ardebug>
    2738:	671a           	beqs 2754 <HIGH+0x54>
    273a:	2f2d 000e      	movel %a5@(14),%sp@-
    273e:	2f2d 0012      	movel %a5@(18),%sp@-
    2742:	4879 000a 651e 	pea a651e <_ar_cmds+0x228>
    2748:	2079 0fef 0084 	moveal fef0084 <_end+0xfe34a70>,%a0
    274e:	4e90           	jsr %a0@
    2750:	4fef 000c      	lea %sp@(12),%sp
    2754:	08ad 0003 0009 	bclr #3,%a5@(9)
    275a:	6022           	bras 277e <HIGH+0x7e>
    275c:	082c 0002 0005 	btst #2,%a4@(5)
    2762:	6600 01ca      	bnew 292e <HIGH+0x22e>
    2766:	4ab9 000a 6248 	tstl a6248 <_ardebug>
    276c:	6710           	beqs 277e <HIGH+0x7e>
    276e:	4879 000a 6538 	pea a6538 <_ar_cmds+0x242>
    2774:	2079 0fef 0084 	moveal fef0084 <_end+0xfe34a70>,%a0
    277a:	4e90           	jsr %a0@
    277c:	584f           	addqw #4,%sp
    277e:	082c 0000 0005 	btst #0,%a4@(5)
    2784:	67d6           	beqs 275c <HIGH+0x5c>
    2786:	08ec 0004 0003 	bset #4,%a4@(3)
    278c:	0cad 0000 0200 	cmpil #512,%a5@(14)
    2792:	000e 
    2794:	6c06           	bges 279c <HIGH+0x9c>
    2796:	202d 000e      	movel %a5@(14),%d0
    279a:	6006           	bras 27a2 <HIGH+0xa2>
    279c:	203c 0000 0200 	movel #512,%d0
    27a2:	2e00           	movel %d0,%d7
    27a4:	266d 0012      	moveal %a5@(18),%a3
    27a8:	7c00           	moveq #0,%d6
    27aa:	6006           	bras 27b2 <HIGH+0xb2>
    27ac:	16ec 0001      	moveb %a4@(1),%a3@+
    27b0:	5286           	addql #1,%d6
    27b2:	bc87           	cmpl %d7,%d6
    27b4:	6df6           	blts 27ac <HIGH+0xac>
    27b6:	6006           	bras 27be <HIGH+0xbe>
    27b8:	1a2c 0001      	moveb %a4@(1),%d5
    27bc:	5286           	addql #1,%d6
    27be:	0c86 0000 0200 	cmpil #512,%d6
    27c4:	6df2           	blts 27b8 <HIGH+0xb8>
    27c6:	08ac 0004 0003 	bclr #4,%a4@(3)
    27cc:	2b55 0004      	movel %a5@,%a5@(4)
    27d0:	7e0f           	moveq #15,%d7
    27d2:	6000 0132      	braw 2906 <HIGH+0x206>
    27d6:	197c 0040 0001 	moveb #64,%a4@(1)
    27dc:	08ec 0001 0003 	bset #1,%a4@(3)
    27e2:	6000 010c      	braw 28f0 <HIGH+0x1f0>
    27e6:	4ab9 000a 6248 	tstl a6248 <_ardebug>
    27ec:	673e           	beqs 282c <HIGH+0x12c>
    27ee:	2f2d 000e      	movel %a5@(14),%sp@-
    27f2:	2f2d 0012      	movel %a5@(18),%sp@-
    27f6:	4879 000a 654a 	pea a654a <_ar_cmds+0x254>
    27fc:	2079 0fef 0084 	moveal fef0084 <_end+0xfe34a70>,%a0
    2802:	4e90           	jsr %a0@
    2804:	4fef 000c      	lea %sp@(12),%sp
    2808:	6022           	bras 282c <HIGH+0x12c>
    280a:	082c 0002 0005 	btst #2,%a4@(5)
    2810:	6600 011c      	bnew 292e <HIGH+0x22e>
    2814:	4ab9 000a 6248 	tstl a6248 <_ardebug>
    281a:	6710           	beqs 282c <HIGH+0x12c>
    281c:	4879 000a 6565 	pea a6565 <_ar_cmds+0x26f>
    2822:	2079 0fef 0084 	moveal fef0084 <_end+0xfe34a70>,%a0
    2828:	4e90           	jsr %a0@
    282a:	584f           	addqw #4,%sp
    282c:	082c 0000 0005 	btst #0,%a4@(5)
    2832:	67d6           	beqs 280a <HIGH+0x10a>
    2834:	08ec 0004 0003 	bset #4,%a4@(3)
    283a:	2e3c 0000 0200 	movel #512,%d7
    2840:	266d 0012      	moveal %a5@(18),%a3
    2844:	6004           	bras 284a <HIGH+0x14a>
    2846:	195b 0001      	moveb %a3@+,%a4@(1)
    284a:	51cf fffa      	dbf %d7,2846 <HIGH+0x146>
    284e:	4247           	clrw %d7
    2850:	5387           	subql #1,%d7
    2852:	64f2           	bccs 2846 <HIGH+0x146>
    2854:	08ac 0004 0003 	bclr #4,%a4@(3)
    285a:	2b55 0004      	movel %a5@,%a5@(4)
    285e:	7e14           	moveq #20,%d7
    2860:	2a87           	movel %d7,%a5@
    2862:	4ab9 000a 6248 	tstl a6248 <_ardebug>
    2868:	6712           	beqs 287c <HIGH+0x17c>
    286a:	2f15           	movel %a5@,%sp@-
    286c:	4879 000a 6578 	pea a6578 <_ar_cmds+0x282>
    2872:	2079 0fef 0084 	moveal fef0084 <_end+0xfe34a70>,%a0
    2878:	4e90           	jsr %a0@
    287a:	504f           	addqw #8,%sp
    287c:	08ec 0007 0003 	bset #7,%a4@(3)
    2882:	08ec 0006 0003 	bset #6,%a4@(3)
    2888:	7001           	moveq #1,%d0
    288a:	6000 00a4      	braw 2930 <HIGH+0x230>
    288e:	08ac 0001 0003 	bclr #1,%a4@(3)
    2894:	6062           	bras 28f8 <HIGH+0x1f8>
    2896:	2b55 0004      	movel %a5@,%a5@(4)
    289a:	7e01           	moveq #1,%d7
    289c:	2a87           	movel %d7,%a5@
    289e:	6006           	bras 28a6 <HIGH+0x1a6>
    28a0:	2b55 0004      	movel %a5@,%a5@(4)
    28a4:	5295           	addql #1,%a5@
    28a6:	4ab9 000a 6248 	tstl a6248 <_ardebug>
    28ac:	6710           	beqs 28be <HIGH+0x1be>
    28ae:	4879 000a 659d 	pea a659d <_ar_cmds+0x2a7>
    28b4:	2079 0fef 0084 	moveal fef0084 <_end+0xfe34a70>,%a0
    28ba:	4e90           	jsr %a0@
    28bc:	584f           	addqw #4,%sp
    28be:	08ac 0007 0003 	bclr #7,%a4@(3)
    28c4:	7001           	moveq #1,%d0
    28c6:	6068           	bras 2930 <HIGH+0x230>
    28c8:	2f15           	movel %a5@,%sp@-
    28ca:	4879 000a 65b0 	pea a65b0 <_ar_cmds+0x2ba>
    28d0:	2079 0fef 0084 	moveal fef0084 <_end+0xfe34a70>,%a0
    28d6:	4e90           	jsr %a0@
    28d8:	504f           	addqw #8,%sp
    28da:	60ca           	bras 28a6 <HIGH+0x1a6>
    28dc:	2f15           	movel %a5@,%sp@-
    28de:	4879 000a 65cb 	pea a65cb <_ar_cmds+0x2d5>
    28e4:	2079 0fef 0084 	moveal fef0084 <_end+0xfe34a70>,%a0
    28ea:	4e90           	jsr %a0@
    28ec:	504f           	addqw #8,%sp
    28ee:	6008           	bras 28f8 <HIGH+0x1f8>
    28f0:	2b55 0004      	movel %a5@,%a5@(4)
    28f4:	5295           	addql #1,%a5@
    28f6:	6010           	bras 2908 <HIGH+0x208>
    28f8:	2b55 0004      	movel %a5@,%a5@(4)
    28fc:	4295           	clrl %a5@
    28fe:	6008           	bras 2908 <HIGH+0x208>
    2900:	2b55 0004      	movel %a5@,%a5@(4)
    2904:	7e02           	moveq #2,%d7
    2906:	2a87           	movel %d7,%a5@
    2908:	4ab9 000a 6248 	tstl a6248 <_ardebug>
    290e:	6712           	beqs 2922 <HIGH+0x222>
    2910:	2f15           	movel %a5@,%sp@-
    2912:	4879 000a 65e1 	pea a65e1 <_ar_cmds+0x2eb>
    2918:	2079 0fef 0084 	moveal fef0084 <_end+0xfe34a70>,%a0
    291e:	4e90           	jsr %a0@
    2920:	504f           	addqw #8,%sp
    2922:	08ec 0007 0003 	bset #7,%a4@(3)
    2928:	08ec 0006 0003 	bset #6,%a4@(3)
    292e:	7000           	moveq #0,%d0
    2930:	4cee 38f0 ffe4 	moveml %fp@(-28),%d4-%d7/%a3-%a5
    2936:	4e5e           	unlk %fp
    2938:	4e75           	rts
    293a:	0000 4e56      	orib #86,%d0
    293e:	ffe0           	.short 0xffe0
    2940:	48d7 3ca0      	moveml %d5/%d7/%a2-%a5,%sp@
    2944:	2a6e 0008      	moveal %fp@(8),%a5
    2948:	286d 0006      	moveal %a5@(6),%a4
    294c:	266d 002e      	moveal %a5@(46),%a3
    2950:	246d 0032      	moveal %a5@(50),%a2
    2954:	202d 000e      	movel %a5@(14),%d0
    2958:	7e03           	moveq #3,%d7
    295a:	c087           	andl %d7,%d0
    295c:	1940 0214      	moveb %d0,%a4@(532)
    2960:	202d 000e      	movel %a5@(14),%d0
    2964:	e480           	asrl #2,%d0
    2966:	0240 0001      	andiw #1,%d0
    296a:	3d40 fffa      	movew %d0,%fp@(-6)
    296e:	1e2b 0004      	moveb %a3@(4),%d7
    2972:	2a3c 0000 0640 	movel #1600,%d5
    2978:	2239 000a 5da6 	movel a5da6 <_cpudelay>,%d1
    297e:	e2a5           	asrl %d1,%d5
    2980:	5385           	subql #1,%d5
    2982:	6efc           	bgts 2980 <HIGH+0x280>
    2984:	4254           	clrw %a4@
    2986:	397c 0002 0002 	movew #2,%a4@(2)
    298c:	397c 0002 0006 	movew #2,%a4@(6)
    2992:	397c 0002 0004 	movew #2,%a4@(4)
    2998:	397c ffff 0018 	movew #-1,%a4@(24)
    299e:	42a7           	clrl %sp@-
    29a0:	4855           	pea %a5@
    29a2:	487a 0256      	pea %pc@(2bfa <HIGH+0x4fa>)
    29a6:	4eb9 000a 57a4 	jsr a57a4 <_isspinning>
    29ac:	4fef 000c      	lea %sp@(12),%sp
    29b0:	4a80           	tstl %d0
    29b2:	6606           	bnes 29ba <HIGH+0x2ba>
    29b4:	70ff           	moveq #-1,%d0
    29b6:	6000 012a      	braw 2ae2 <HIGH+0x3e2>
    29ba:	426c 000a      	clrw %a4@(10)
    29be:	6050           	bras 2a10 <HIGH+0x310>
    29c0:	206d 0032      	moveal %a5@(50),%a0
    29c4:	7e18           	moveq #24,%d7
    29c6:	d1c7           	addal %d7,%a0
    29c8:	2d48 fffc      	movel %a0,%fp@(-4)
    29cc:	4268 01fc      	clrw %a0@(508)
    29d0:	4878 0001      	pea 1 <CACR_ENABLE>
    29d4:	2f2e fffc      	movel %fp@(-4),%sp@-
    29d8:	42a7           	clrl %sp@-
    29da:	4855           	pea %a5@
    29dc:	4878 0200      	pea 200 <RST+0xc4>
    29e0:	4eb9 000a 2c36 	jsr a2c36 <_xycmd>
    29e6:	4fef 0014      	lea %sp@(20),%sp
    29ea:	4a80           	tstl %d0
    29ec:	661e           	bnes 2a0c <HIGH+0x30c>
    29ee:	2f2e fffc      	movel %fp@(-4),%sp@-
    29f2:	4eb9 000a 574c 	jsr a574c <_chklabel>
    29f8:	584f           	addqw #4,%sp
    29fa:	4a80           	tstl %d0
    29fc:	660e           	bnes 2a0c <HIGH+0x30c>
    29fe:	206e fffc      	moveal %fp@(-4),%a0
    2a02:	302e fffa      	movew %fp@(-6),%d0
    2a06:	b068 01ba      	cmpw %a0@(442),%d0
    2a0a:	6722           	beqs 2a2e <HIGH+0x32e>
    2a0c:	526c 000a      	addqw #1,%a4@(10)
    2a10:	0c6c 0004 000a 	cmpiw #4,%a4@(10)
    2a16:	65a8           	bcss 29c0 <HIGH+0x2c0>
    2a18:	4879 000a 70e0 	pea a70e0 <_msg_nolabel>
    2a1e:	2079 0fef 0084 	moveal fef0084 <_end+0xfe34a70>,%a0
    2a24:	4e90           	jsr %a0@
    2a26:	584f           	addqw #4,%sp
    2a28:	70ff           	moveq #-1,%d0
    2a2a:	6000 00b6      	braw 2ae2 <HIGH+0x3e2>
    2a2e:	206e fffc      	moveal %fp@(-4),%a0
    2a32:	3968 01b4 0006 	movew %a0@(436),%a4@(6)
    2a38:	206e fffc      	moveal %fp@(-4),%a0
    2a3c:	3968 01b6 0002 	movew %a0@(438),%a4@(2)
    2a42:	206e fffc      	moveal %fp@(-4),%a0
    2a46:	3028 01b0      	movew %a0@(432),%d0
    2a4a:	d068 01b2      	addw %a0@(434),%d0
    2a4e:	3940 0004      	movew %d0,%a4@(4)
    2a52:	206e fffc      	moveal %fp@(-4),%a0
    2a56:	d1fc 0000 01bc 	addal #444,%a0
    2a5c:	202d 0012      	movel %a5@(18),%d0
    2a60:	e780           	asll #3,%d0
    2a62:	d1c0           	addal %d0,%a0
    2a64:	2010           	movel %a0@,%d0
    2a66:	3880           	movew %d0,%a4@
    2a68:	206e fffc      	moveal %fp@(-4),%a0
    2a6c:	d1fc 0000 01bc 	addal #444,%a0
    2a72:	202d 0012      	movel %a5@(18),%d0
    2a76:	e780           	asll #3,%d0
    2a78:	d1c0           	addal %d0,%a0
    2a7a:	2968 0004 000c 	movel %a0@(4),%a4@(12)
    2a80:	42a7           	clrl %sp@-
    2a82:	42a7           	clrl %sp@-
    2a84:	42a7           	clrl %sp@-
    2a86:	4855           	pea %a5@
    2a88:	4878 0b00      	pea b00 <RST+0x9c4>
    2a8c:	4eb9 000a 2c36 	jsr a2c36 <_xycmd>
    2a92:	4fef 0014      	lea %sp@(20),%sp
    2a96:	302c 0004      	movew %a4@(4),%d0
    2a9a:	c0ec 0006      	muluw %a4@(6),%d0
    2a9e:	5380           	subql #1,%d0
    2aa0:	7200           	moveq #0,%d1
    2aa2:	322c 0002      	movew %a4@(2),%d1
    2aa6:	4eb9 000a 5ce0 	jsr a5ce0 <ulmult>
    2aac:	2940 0010      	movel %d0,%a4@(16)
    2ab0:	4878 0001      	pea 1 <CACR_ENABLE>
    2ab4:	486c 0014      	pea %a4@(20)
    2ab8:	2f2c 0010      	movel %a4@(16),%sp@-
    2abc:	4855           	pea %a5@
    2abe:	4878 0200      	pea 200 <RST+0xc4>
    2ac2:	4eb9 000a 2c36 	jsr a2c36 <_xycmd>
    2ac8:	4fef 0014      	lea %sp@(20),%sp
    2acc:	4a80           	tstl %d0
    2ace:	6710           	beqs 2ae0 <HIGH+0x3e0>
    2ad0:	4879 000a 6684 	pea a6684 <_xydriver+0x1e>
    2ad6:	2079 0fef 0084 	moveal fef0084 <_end+0xfe34a70>,%a0
    2adc:	4e90           	jsr %a0@
    2ade:	584f           	addqw #4,%sp
    2ae0:	7000           	moveq #0,%d0
    2ae2:	4cee 3ca0 ffe0 	moveml %fp@(-32),%d5/%d7/%a2-%a5
    2ae8:	4e5e           	unlk %fp
    2aea:	4e75           	rts
    2aec:	4e56 ffe4      	linkw %fp,#-28
    2af0:	48d7 20e0      	moveml %d5-%d7/%a5,%sp@
    2af4:	0cae 0000 0002 	cmpil #2,%fp@(12)
    2afa:	000c 
    2afc:	6608           	bnes 2b06 <HIGH+0x406>
    2afe:	203c 0000 0100 	movel #256,%d0
    2b04:	6006           	bras 2b0c <HIGH+0x40c>
    2b06:	203c 0000 0200 	movel #512,%d0
    2b0c:	2e00           	movel %d0,%d7
    2b0e:	206e 0008      	moveal %fp@(8),%a0
    2b12:	2a68 0006      	moveal %a0@(6),%a5
    2b16:	3015           	movew %a5@,%d0
    2b18:	c0ed 0002      	muluw %a5@(2),%d0
    2b1c:	7200           	moveq #0,%d1
    2b1e:	322d 0006      	movew %a5@(6),%d1
    2b22:	4eb9 000a 5ce0 	jsr a5ce0 <ulmult>
    2b28:	2c00           	movel %d0,%d6
    2b2a:	206e 0008      	moveal %fp@(8),%a0
    2b2e:	2028 0026      	movel %a0@(38),%d0
    2b32:	6c06           	bges 2b3a <HIGH+0x43a>
    2b34:	0680 0000 01ff 	addil #511,%d0
    2b3a:	e080           	asrl #8,%d0
    2b3c:	e280           	asrl #1,%d0
    2b3e:	3a00           	movew %d0,%d5
    2b40:	206e 0008      	moveal %fp@(8),%a0
    2b44:	2028 001e      	movel %a0@(30),%d0
    2b48:	3205           	movew %d5,%d1
    2b4a:	48c1           	extl %d1
    2b4c:	d081           	addl %d1,%d0
    2b4e:	b0ad 000c      	cmpl %a5@(12),%d0
    2b52:	6f0a           	bles 2b5e <HIGH+0x45e>
    2b54:	202d 000c      	movel %a5@(12),%d0
    2b58:	90a8 001e      	subl %a0@(30),%d0
    2b5c:	3a00           	movew %d0,%d5
    2b5e:	4a45           	tstw %d5
    2b60:	6606           	bnes 2b68 <HIGH+0x468>
    2b62:	7000           	moveq #0,%d0
    2b64:	6000 008a      	braw 2bf0 <HIGH+0x4f0>
    2b68:	3005           	movew %d5,%d0
    2b6a:	48c0           	extl %d0
    2b6c:	2f00           	movel %d0,%sp@-
    2b6e:	206e 0008      	moveal %fp@(8),%a0
    2b72:	2f28 0022      	movel %a0@(34),%sp@-
    2b76:	2028 001e      	movel %a0@(30),%d0
    2b7a:	d086           	addl %d6,%d0
    2b7c:	2f00           	movel %d0,%sp@-
    2b7e:	2f08           	movel %a0,%sp@-
    2b80:	2f07           	movel %d7,%sp@-
    2b82:	4eb9 000a 2c36 	jsr a2c36 <_xycmd>
    2b88:	4fef 0014      	lea %sp@(20),%sp
    2b8c:	4a80           	tstl %d0
    2b8e:	6758           	beqs 2be8 <HIGH+0x4e8>
    2b90:	206e 0008      	moveal %fp@(8),%a0
    2b94:	2028 001e      	movel %a0@(30),%d0
    2b98:	d086           	addl %d6,%d0
    2b9a:	2d40 fff4      	movel %d0,%fp@(-12)
    2b9e:	2d68 0022 fffc 	movel %a0@(34),%fp@(-4)
    2ba4:	42ae fff8      	clrl %fp@(-8)
    2ba8:	6034           	bras 2bde <HIGH+0x4de>
    2baa:	4878 0001      	pea 1 <CACR_ENABLE>
    2bae:	2f2e fffc      	movel %fp@(-4),%sp@-
    2bb2:	2f2e fff4      	movel %fp@(-12),%sp@-
    2bb6:	2f2e 0008      	movel %fp@(8),%sp@-
    2bba:	2f07           	movel %d7,%sp@-
    2bbc:	4eb9 000a 2c36 	jsr a2c36 <_xycmd>
    2bc2:	4fef 0014      	lea %sp@(20),%sp
    2bc6:	4a80           	tstl %d0
    2bc8:	6704           	beqs 2bce <HIGH+0x4ce>
    2bca:	70ff           	moveq #-1,%d0
    2bcc:	6022           	bras 2bf0 <HIGH+0x4f0>
    2bce:	52ae fff4      	addql #1,%fp@(-12)
    2bd2:	06ae 0000 0200 	addil #512,%fp@(-4)
    2bd8:	fffc 
    2bda:	52ae fff8      	addql #1,%fp@(-8)
    2bde:	3005           	movew %d5,%d0
    2be0:	48c0           	extl %d0
    2be2:	b0ae fff8      	cmpl %fp@(-8),%d0
    2be6:	6ec2           	bgts 2baa <HIGH+0x4aa>
    2be8:	3005           	movew %d5,%d0
    2bea:	48c0           	extl %d0
    2bec:	7209           	moveq #9,%d1
    2bee:	e3a0           	asll %d1,%d0
    2bf0:	4cee 20e0 ffe4 	moveml %fp@(-28),%d5-%d7/%a5
    2bf6:	4e5e           	unlk %fp
    2bf8:	4e75           	rts
    2bfa:	4e56 fffc      	linkw %fp,#-4
    2bfe:	2e8d           	movel %a5,%sp@
    2c00:	206e 0008      	moveal %fp@(8),%a0
    2c04:	2a68 0032      	moveal %a0@(50),%a5
    2c08:	42a7           	clrl %sp@-
    2c0a:	42a7           	clrl %sp@-
    2c0c:	42a7           	clrl %sp@-
    2c0e:	2f08           	movel %a0,%sp@-
    2c10:	4878 0900      	pea 900 <RST+0x7c4>
    2c14:	4eb9 000a 2c36 	jsr a2c36 <_xycmd>
    2c1a:	4fef 0014      	lea %sp@(20),%sp
    2c1e:	302d 000a      	movew %a5@(10),%d0
    2c22:	0800 0006      	btst #6,%d0
    2c26:	6704           	beqs 2c2c <HIGH+0x52c>
    2c28:	7000           	moveq #0,%d0
    2c2a:	6002           	bras 2c2e <HIGH+0x52e>
    2c2c:	7001           	moveq #1,%d0
    2c2e:	2a6e fffc      	moveal %fp@(-4),%a5
    2c32:	4e5e           	unlk %fp
    2c34:	4e75           	rts
    2c36:	4e56 ffd0      	linkw %fp,#-48
    2c3a:	48d7 3cf0      	moveml %d4-%d7/%a2-%a5,%sp@
    2c3e:	2e2e 0010      	movel %fp@(16),%d7
    2c42:	206e 000c      	moveal %fp@(12),%a0
    2c46:	2a68 0006      	moveal %a0@(6),%a5
    2c4a:	2868 0032      	moveal %a0@(50),%a4
    2c4e:	2668 002e      	moveal %a0@(46),%a3
    2c52:	2468 0032      	moveal %a0@(50),%a2
    2c56:	7c18           	moveq #24,%d6
    2c58:	d5c6           	addal %d6,%a2
    2c5a:	42ae fff0      	clrl %fp@(-16)
    2c5e:	302d 0002      	movew %a5@(2),%d0
    2c62:	c0ed 0006      	muluw %a5@(6),%d0
    2c66:	2200           	movel %d0,%d1
    2c68:	2007           	movel %d7,%d0
    2c6a:	4eb9 000a 16ca 	jsr a16ca <uldivt>
    2c70:	3d40 fffe      	movew %d0,%fp@(-2)
    2c74:	7200           	moveq #0,%d1
    2c76:	322d 0002      	movew %a5@(2),%d1
    2c7a:	2007           	movel %d7,%d0
    2c7c:	4eb9 000a 179c 	jsr a179c <ulmodt>
    2c82:	3d40 fffc      	movew %d0,%fp@(-4)
    2c86:	7200           	moveq #0,%d1
    2c88:	322d 0002      	movew %a5@(2),%d1
    2c8c:	2007           	movel %d7,%d0
    2c8e:	4eb9 000a 16ca 	jsr a16ca <uldivt>
    2c94:	7200           	moveq #0,%d1
    2c96:	322d 0006      	movew %a5@(6),%d1
    2c9a:	4eb9 000a 179c 	jsr a179c <ulmodt>
    2ca0:	3d40 fffa      	movew %d0,%fp@(-6)
    2ca4:	0cae 0000 0100 	cmpil #256,%fp@(8)
    2caa:	0008 
    2cac:	6622           	bnes 2cd0 <HIGH+0x5d0>
    2cae:	202e 0014      	movel %fp@(20),%d0
    2cb2:	b08a           	cmpl %a2,%d0
    2cb4:	671a           	beqs 2cd0 <HIGH+0x5d0>
    2cb6:	202e 0018      	movel %fp@(24),%d0
    2cba:	7209           	moveq #9,%d1
    2cbc:	e3a0           	asll %d1,%d0
    2cbe:	2f00           	movel %d0,%sp@-
    2cc0:	4852           	pea %a2@
    2cc2:	2f2e 0014      	movel %fp@(20),%sp@-
    2cc6:	4eb9 000a 4f6a 	jsr a4f6a <_bcopy>
    2ccc:	4fef 000c      	lea %sp@(12),%sp
    2cd0:	4878 0018      	pea 18 <CACR_CLEAR+0x10>
    2cd4:	4854           	pea %a4@
    2cd6:	4eb9 000a 4f44 	jsr a4f44 <_bzero>
    2cdc:	504f           	addqw #8,%sp
    2cde:	08ec 0006 0001 	bset #6,%a4@(1)
    2ce4:	08ec 0007 0001 	bset #7,%a4@(1)
    2cea:	202e 0008      	movel %fp@(8),%d0
    2cee:	e080           	asrl #8,%d0
    2cf0:	022c fff0 0001 	andib #-16,%a4@(1)
    2cf6:	0200 000f      	andib #15,%d0
    2cfa:	812c 0001      	orb %d0,%a4@(1)
    2cfe:	7000           	moveq #0,%d0
    2d00:	302d 000a      	movew %a5@(10),%d0
    2d04:	022c ff3f 0004 	andib #63,%a4@(4)
    2d0a:	0200 0003      	andib #3,%d0
    2d0e:	ed88           	lsll #6,%d0
    2d10:	812c 0004      	orb %d0,%a4@(4)
    2d14:	102d 0214      	moveb %a5@(532),%d0
    2d18:	7c03           	moveq #3,%d6
    2d1a:	c086           	andl %d6,%d0
    2d1c:	022c fffc 0004 	andib #-4,%a4@(4)
    2d22:	c006           	andb %d6,%d0
    2d24:	812c 0004      	orb %d0,%a4@(4)
    2d28:	0214 fffc      	andib #-4,%a4@
    2d2c:	0014 0002      	orib #2,%a4@
    2d30:	022c fff8 0005 	andib #-8,%a4@(5)
    2d36:	002c 0004 0005 	orib #4,%a4@(5)
    2d3c:	0cae 0000 0b00 	cmpil #2816,%fp@(8)
    2d42:	0008 
    2d44:	6620           	bnes 2d66 <HIGH+0x666>
    2d46:	302d 0006      	movew %a5@(6),%d0
    2d4a:	5340           	subqw #1,%d0
    2d4c:	1940 0007      	moveb %d0,%a4@(7)
    2d50:	302d 0004      	movew %a5@(4),%d0
    2d54:	5340           	subqw #1,%d0
    2d56:	3940 0008      	movew %d0,%a4@(8)
    2d5a:	302d 0002      	movew %a5@(2),%d0
    2d5e:	5340           	subqw #1,%d0
    2d60:	1940 0006      	moveb %d0,%a4@(6)
    2d64:	6042           	bras 2da8 <HIGH+0x6a8>
    2d66:	196e fffd 0006 	moveb %fp@(-3),%a4@(6)
    2d6c:	196e fffb 0007 	moveb %fp@(-5),%a4@(7)
    2d72:	396e fffe 0008 	movew %fp@(-2),%a4@(8)
    2d78:	396e 001a 000a 	movew %fp@(26),%a4@(10)
    2d7e:	4240           	clrw %d0
    2d80:	394a 000c      	movew %a2,%a4@(12)
    2d84:	082b 0003 0005 	btst #3,%a3@(5)
    2d8a:	670e           	beqs 2d9a <HIGH+0x69a>
    2d8c:	200a           	movel %a2,%d0
    2d8e:	0280 000f 0000 	andil #983040,%d0
    2d94:	7210           	moveq #16,%d1
    2d96:	e2a0           	asrl %d1,%d0
    2d98:	600a           	bras 2da4 <HIGH+0x6a4>
    2d9a:	200a           	movel %a2,%d0
    2d9c:	0280 000f 0000 	andil #983040,%d0
    2da2:	e880           	asrl #4,%d0
    2da4:	3940 000e      	movew %d0,%a4@(14)
    2da8:	082b 0003 0005 	btst #3,%a3@(5)
    2dae:	670e           	beqs 2dbe <HIGH+0x6be>
    2db0:	200c           	movel %a4,%d0
    2db2:	0280 000f 0000 	andil #983040,%d0
    2db8:	7210           	moveq #16,%d1
    2dba:	e2a0           	asrl %d1,%d0
    2dbc:	600a           	bras 2dc8 <HIGH+0x6c8>
    2dbe:	200c           	movel %a4,%d0
    2dc0:	0280 000f 0000 	andil #983040,%d0
    2dc6:	e880           	asrl #4,%d0
    2dc8:	1a00           	moveb %d0,%d5
    2dca:	e080           	asrl #8,%d0
    2dcc:	1680           	moveb %d0,%a3@
    2dce:	1745 0001      	moveb %d5,%a3@(1)
    2dd2:	200c           	movel %a4,%d0
    2dd4:	0280 000f ffff 	andil #1048575,%d0
    2dda:	e080           	asrl #8,%d0
    2ddc:	1740 0002      	moveb %d0,%a3@(2)
    2de0:	200c           	movel %a4,%d0
    2de2:	0200 00ff      	andib #-1,%d0
    2de6:	1740 0003      	moveb %d0,%a3@(3)
    2dea:	177c 0080 0005 	moveb #-128,%a3@(5)
    2df0:	283c 0000 01e0 	movel #480,%d4
    2df6:	2239 000a 5da6 	movel a5da6 <_cpudelay>,%d1
    2dfc:	e2a4           	asrl %d1,%d4
    2dfe:	5384           	subql #1,%d4
    2e00:	6efc           	bgts 2dfe <HIGH+0x6fe>
    2e02:	082b 0007 0005 	btst #7,%a3@(5)
    2e08:	66e6           	bnes 2df0 <HIGH+0x6f0>
    2e0a:	082b 0006 0005 	btst #6,%a3@(5)
    2e10:	671e           	beqs 2e30 <HIGH+0x730>
    2e12:	177c 0040 0005 	moveb #64,%a3@(5)
    2e18:	283c 0000 0640 	movel #1600,%d4
    2e1e:	2239 000a 5da6 	movel a5da6 <_cpudelay>,%d1
    2e24:	e2a4           	asrl %d1,%d4
    2e26:	5384           	subql #1,%d4
    2e28:	6efc           	bgts 2e26 <HIGH+0x726>
    2e2a:	08ec 0007 0003 	bset #7,%a4@(3)
    2e30:	082c 0007 0003 	btst #7,%a4@(3)
    2e36:	6700 00c2      	beqw 2efa <HIGH+0x7fa>
    2e3a:	0c2c 001f 0002 	cmpib #31,%a4@(2)
    2e40:	6700 00b8      	beqw 2efa <HIGH+0x7fa>
    2e44:	0cae 0000 0001 	cmpil #1,%fp@(24)
    2e4a:	0018 
    2e4c:	6600 00a8      	bnew 2ef6 <HIGH+0x7f6>
    2e50:	7000           	moveq #0,%d0
    2e52:	102c 0002      	moveb %a4@(2),%d0
    2e56:	2d40 fff4      	movel %d0,%fp@(-12)
    2e5a:	7000           	moveq #0,%d0
    2e5c:	302e fffc      	movew %fp@(-4),%d0
    2e60:	2f00           	movel %d0,%sp@-
    2e62:	7000           	moveq #0,%d0
    2e64:	302e fffa      	movew %fp@(-6),%d0
    2e68:	2f00           	movel %d0,%sp@-
    2e6a:	7000           	moveq #0,%d0
    2e6c:	302e fffe      	movew %fp@(-2),%d0
    2e70:	2f00           	movel %d0,%sp@-
    2e72:	4855           	pea %a5@
    2e74:	4eb9 000a 2f32 	jsr a2f32 <_xyfwd>
    2e7a:	4fef 0010      	lea %sp@(16),%sp
    2e7e:	2c00           	movel %d0,%d6
    2e80:	671e           	beqs 2ea0 <HIGH+0x7a0>
    2e82:	4878 0001      	pea 1 <CACR_ENABLE>
    2e86:	2f2e 0014      	movel %fp@(20),%sp@-
    2e8a:	2f06           	movel %d6,%sp@-
    2e8c:	2f2e 000c      	movel %fp@(12),%sp@-
    2e90:	2f2e 0008      	movel %fp@(8),%sp@-
    2e94:	6100 fda0      	bsrw 2c36 <HIGH+0x536>
    2e98:	4fef 0014      	lea %sp@(20),%sp
    2e9c:	6000 008a      	braw 2f28 <HIGH+0x828>
    2ea0:	0cae 0000 0600 	cmpil #1536,%fp@(8)
    2ea6:	0008 
    2ea8:	6716           	beqs 2ec0 <HIGH+0x7c0>
    2eaa:	42a7           	clrl %sp@-
    2eac:	42a7           	clrl %sp@-
    2eae:	42a7           	clrl %sp@-
    2eb0:	2f2e 000c      	movel %fp@(12),%sp@-
    2eb4:	4878 0600      	pea 600 <RST+0x4c4>
    2eb8:	6100 fd7c      	bsrw 2c36 <HIGH+0x536>
    2ebc:	4fef 0014      	lea %sp@(20),%sp
    2ec0:	52ae fff0      	addql #1,%fp@(-16)
    2ec4:	0cae 0000 0005 	cmpil #5,%fp@(-16)
    2eca:	fff0 
    2ecc:	6d00 fe02      	bltw 2cd0 <HIGH+0x5d0>
    2ed0:	4a87           	tstl %d7
    2ed2:	660a           	bnes 2ede <HIGH+0x7de>
    2ed4:	0cae 0000 0005 	cmpil #5,%fp@(-12)
    2eda:	fff4 
    2edc:	6718           	beqs 2ef6 <HIGH+0x7f6>
    2ede:	2f07           	movel %d7,%sp@-
    2ee0:	2f2e fff4      	movel %fp@(-12),%sp@-
    2ee4:	4879 000a 669b 	pea a669b <_xydriver+0x35>
    2eea:	2079 0fef 0084 	moveal fef0084 <_end+0xfe34a70>,%a0
    2ef0:	4e90           	jsr %a0@
    2ef2:	4fef 000c      	lea %sp@(12),%sp
    2ef6:	70ff           	moveq #-1,%d0
    2ef8:	602e           	bras 2f28 <HIGH+0x828>
    2efa:	0cae 0000 0200 	cmpil #512,%fp@(8)
    2f00:	0008 
    2f02:	6622           	bnes 2f26 <HIGH+0x826>
    2f04:	202e 0014      	movel %fp@(20),%d0
    2f08:	b08a           	cmpl %a2,%d0
    2f0a:	671a           	beqs 2f26 <HIGH+0x826>
    2f0c:	202e 0018      	movel %fp@(24),%d0
    2f10:	7209           	moveq #9,%d1
    2f12:	e3a0           	asll %d1,%d0
    2f14:	2f00           	movel %d0,%sp@-
    2f16:	2f2e 0014      	movel %fp@(20),%sp@-
    2f1a:	4852           	pea %a2@
    2f1c:	4eb9 000a 4f6a 	jsr a4f6a <_bcopy>
    2f22:	4fef 000c      	lea %sp@(12),%sp
    2f26:	7000           	moveq #0,%d0
    2f28:	4cee 3cf0 ffd0 	moveml %fp@(-48),%d4-%d7/%a2-%a5
    2f2e:	4e5e           	unlk %fp
    2f30:	4e75           	rts
    2f32:	4e56 fff4      	linkw %fp,#-12
    2f36:	48d7 3080      	moveml %d7/%a4-%a5,%sp@
    2f3a:	2a6e 0008      	moveal %fp@(8),%a5
    2f3e:	49ed 0014      	lea %a5@(20),%a4
    2f42:	4a6c 0004      	tstw %a4@(4)
    2f46:	6646           	bnes 2f8e <HIGH+0x88e>
    2f48:	7e00           	moveq #0,%d7
    2f4a:	2007           	movel %d7,%d0
    2f4c:	e580           	asll #2,%d0
    2f4e:	3034 0808      	movew %a4@(00000008,%d0:l),%d0
    2f52:	0280 0000 ffff 	andil #65535,%d0
    2f58:	b0ae 000c      	cmpl %fp@(12),%d0
    2f5c:	6628           	bnes 2f86 <HIGH+0x886>
    2f5e:	41ec 0008      	lea %a4@(8),%a0
    2f62:	2007           	movel %d7,%d0
    2f64:	e580           	asll #2,%d0
    2f66:	d1c0           	addal %d0,%a0
    2f68:	7000           	moveq #0,%d0
    2f6a:	3028 0002      	movew %a0@(2),%d0
    2f6e:	222e 0010      	movel %fp@(16),%d1
    2f72:	e181           	asll #8,%d1
    2f74:	d2ae 0014      	addl %fp@(20),%d1
    2f78:	b081           	cmpl %d1,%d0
    2f7a:	660a           	bnes 2f86 <HIGH+0x886>
    2f7c:	202d 0010      	movel %a5@(16),%d0
    2f80:	9087           	subl %d7,%d0
    2f82:	5380           	subql #1,%d0
    2f84:	600a           	bras 2f90 <HIGH+0x890>
    2f86:	5287           	addql #1,%d7
    2f88:	727e           	moveq #126,%d1
    2f8a:	be81           	cmpl %d1,%d7
    2f8c:	6dbc           	blts 2f4a <HIGH+0x84a>
    2f8e:	7000           	moveq #0,%d0
    2f90:	4cee 3080 fff4 	moveml %fp@(-12),%d7/%a4-%a5
    2f96:	4e5e           	unlk %fp
    2f98:	4e75           	rts
    2f9a:	0000 4e56      	orib #86,%d0
    2f9e:	fff8           	.short 0xfff8
    2fa0:	206e 0008      	moveal %fp@(8),%a0
    2fa4:	42a8 001e      	clrl %a0@(30)
    2fa8:	206e 0008      	moveal %fp@(8),%a0
    2fac:	42a8 0026      	clrl %a0@(38)
    2fb0:	206e 0008      	moveal %fp@(8),%a0
    2fb4:	42a8 0022      	clrl %a0@(34)
    2fb8:	42a7           	clrl %sp@-
    2fba:	2f2e 0008      	movel %fp@(8),%sp@-
    2fbe:	42a7           	clrl %sp@-
    2fc0:	4eb9 000a 31a2 	jsr a31a2 <_sdcmd>
    2fc6:	4fef 000c      	lea %sp@(12),%sp
    2fca:	2d40 fff8      	movel %d0,%fp@(-8)
    2fce:	6e14           	bgts 2fe4 <HIGH+0x8e4>
    2fd0:	42a7           	clrl %sp@-
    2fd2:	2f2e 0008      	movel %fp@(8),%sp@-
    2fd6:	42a7           	clrl %sp@-
    2fd8:	4eb9 000a 31a2 	jsr a31a2 <_sdcmd>
    2fde:	4fef 000c      	lea %sp@(12),%sp
    2fe2:	6004           	bras 2fe8 <HIGH+0x8e8>
    2fe4:	202e fff8      	movel %fp@(-8),%d0
    2fe8:	4e5e           	unlk %fp
    2fea:	4e75           	rts
    2fec:	4e56 fff0      	linkw %fp,#-16
    2ff0:	48d7 3030      	moveml %d4-%d5/%a4-%a5,%sp@
    2ff4:	2a6e 0008      	moveal %fp@(8),%a5
    2ff8:	286d 0006      	moveal %a5@(6),%a4
    2ffc:	4878 0046      	pea 46 <CACR_CLEAR+0x3e>
    3000:	4854           	pea %a4@
    3002:	4eb9 000a 4f44 	jsr a4f44 <_bzero>
    3008:	504f           	addqw #8,%sp
    300a:	700c           	moveq #12,%d0
    300c:	41ec 0010      	lea %a4@(16),%a0
    3010:	224d           	moveal %a5,%a1
    3012:	20d9           	movel %a1@+,%a0@+
    3014:	51c8 fffc      	dbf %d0,3012 <HIGH+0x912>
    3018:	3091           	movew %a1@,%a0@
    301a:	297c 000a 6cec 	movel #683244,%a4@(18)
    3020:	0012 
    3022:	202d 000e      	movel %a5@(14),%d0
    3026:	e480           	asrl #2,%d0
    3028:	2940 001e      	movel %d0,%a4@(30)
    302c:	486c 0010      	pea %a4@(16)
    3030:	4eb9 000a 12cc 	jsr a12cc <_devopen>
    3036:	584f           	addqw #4,%sp
    3038:	2a00           	movel %d0,%d5
    303a:	6c06           	bges 3042 <HIGH+0x942>
    303c:	2005           	movel %d5,%d0
    303e:	6000 00ea      	braw 312a <HIGH+0xa2a>
    3042:	202d 000e      	movel %a5@(14),%d0
    3046:	7a03           	moveq #3,%d5
    3048:	c085           	andl %d5,%d0
    304a:	2940 0004      	movel %d0,%a4@(4)
    304e:	42a7           	clrl %sp@-
    3050:	4855           	pea %a5@
    3052:	487a ff48      	pea %pc@(2f9c <HIGH+0x89c>)
    3056:	4eb9 000a 57a4 	jsr a57a4 <_isspinning>
    305c:	4fef 000c      	lea %sp@(12),%sp
    3060:	4a80           	tstl %d0
    3062:	670c           	beqs 3070 <HIGH+0x970>
    3064:	7a01           	moveq #1,%d5
    3066:	b085           	cmpl %d5,%d0
    3068:	671e           	beqs 3088 <HIGH+0x988>
    306a:	7a02           	moveq #2,%d5
    306c:	b085           	cmpl %d5,%d0
    306e:	6706           	beqs 3076 <HIGH+0x976>
    3070:	70ff           	moveq #-1,%d0
    3072:	6000 00b6      	braw 312a <HIGH+0xa2a>
    3076:	283c 00f4 2400 	movel #16000000,%d4
    307c:	2239 000a 5da6 	movel a5da6 <_cpudelay>,%d1
    3082:	e2a4           	asrl %d1,%d4
    3084:	5384           	subql #1,%d4
    3086:	6efc           	bgts 3084 <HIGH+0x984>
    3088:	206d 0032      	moveal %a5@(50),%a0
    308c:	4268 21fc      	clrw %a0@(8700)
    3090:	202d 0032      	movel %a5@(50),%d0
    3094:	0680 0000 2000 	addil #8192,%d0
    309a:	2b40 0022      	movel %d0,%a5@(34)
    309e:	2b7c 0000 0200 	movel #512,%a5@(38)
    30a4:	0026 
    30a6:	42ad 001e      	clrl %a5@(30)
    30aa:	4878 0001      	pea 1 <CACR_ENABLE>
    30ae:	4855           	pea %a5@
    30b0:	4878 0008      	pea 8 <CACR_CLEAR>
    30b4:	4eb9 000a 31a2 	jsr a31a2 <_sdcmd>
    30ba:	4fef 000c      	lea %sp@(12),%sp
    30be:	4a80           	tstl %d0
    30c0:	6f18           	bles 30da <HIGH+0x9da>
    30c2:	202d 0032      	movel %a5@(50),%d0
    30c6:	0680 0000 2000 	addil #8192,%d0
    30cc:	2f00           	movel %d0,%sp@-
    30ce:	4eb9 000a 574c 	jsr a574c <_chklabel>
    30d4:	584f           	addqw #4,%sp
    30d6:	4a80           	tstl %d0
    30d8:	6704           	beqs 30de <HIGH+0x9de>
    30da:	70ff           	moveq #-1,%d0
    30dc:	604c           	bras 312a <HIGH+0xa2a>
    30de:	206d 0032      	moveal %a5@(50),%a0
    30e2:	d1fc 0000 21bc 	addal #8636,%a0
    30e8:	202d 0012      	movel %a5@(18),%d0
    30ec:	e780           	asll #3,%d0
    30ee:	d1c0           	addal %d0,%a0
    30f0:	2010           	movel %a0@,%d0
    30f2:	206d 0032      	moveal %a5@(50),%a0
    30f6:	226d 0032      	moveal %a5@(50),%a1
    30fa:	3229 21b4      	movew %a1@(8628),%d1
    30fe:	c2e8 21b6      	muluw %a0@(8630),%d1
    3102:	c0c1           	muluw %d1,%d0
    3104:	2940 0008      	movel %d0,%a4@(8)
    3108:	206d 0032      	moveal %a5@(50),%a0
    310c:	d1fc 0000 21bc 	addal #8636,%a0
    3112:	202d 0012      	movel %a5@(18),%d0
    3116:	e780           	asll #3,%d0
    3118:	d1c0           	addal %d0,%a0
    311a:	2028 0004      	movel %a0@(4),%d0
    311e:	0280 0000 ffff 	andil #65535,%d0
    3124:	2940 000c      	movel %d0,%a4@(12)
    3128:	7000           	moveq #0,%d0
    312a:	4cee 3030 fff0 	moveml %fp@(-16),%d4-%d5/%a4-%a5
    3130:	4e5e           	unlk %fp
    3132:	4e75           	rts
    3134:	4e56 fff8      	linkw %fp,#-8
    3138:	48d7 2080      	moveml %d7/%a5,%sp@
    313c:	2e2e 000c      	movel %fp@(12),%d7
    3140:	206e 0008      	moveal %fp@(8),%a0
    3144:	2a68 0006      	moveal %a0@(6),%a5
    3148:	202d 000c      	movel %a5@(12),%d0
    314c:	7209           	moveq #9,%d1
    314e:	e3a0           	asll %d1,%d0
    3150:	b0a8 0026      	cmpl %a0@(38),%d0
    3154:	6c0c           	bges 3162 <HIGH+0xa62>
    3156:	202d 000c      	movel %a5@(12),%d0
    315a:	7209           	moveq #9,%d1
    315c:	e3a0           	asll %d1,%d0
    315e:	2140 0026      	movel %d0,%a0@(38)
    3162:	206e 0008      	moveal %fp@(8),%a0
    3166:	4aa8 0026      	tstl %a0@(38)
    316a:	6e04           	bgts 3170 <HIGH+0xa70>
    316c:	7000           	moveq #0,%d0
    316e:	6028           	bras 3198 <HIGH+0xa98>
    3170:	4878 0001      	pea 1 <CACR_ENABLE>
    3174:	2f2e 0008      	movel %fp@(8),%sp@-
    3178:	7202           	moveq #2,%d1
    317a:	be81           	cmpl %d1,%d7
    317c:	6604           	bnes 3182 <HIGH+0xa82>
    317e:	700a           	moveq #10,%d0
    3180:	6002           	bras 3184 <HIGH+0xa84>
    3182:	7008           	moveq #8,%d0
    3184:	2f00           	movel %d0,%sp@-
    3186:	4eb9 000a 31a2 	jsr a31a2 <_sdcmd>
    318c:	4fef 000c      	lea %sp@(12),%sp
    3190:	2e00           	movel %d0,%d7
    3192:	6c02           	bges 3196 <HIGH+0xa96>
    3194:	7e00           	moveq #0,%d7
    3196:	2007           	movel %d7,%d0
    3198:	4cee 2080 fff8 	moveml %fp@(-8),%d7/%a5
    319e:	4e5e           	unlk %fp
    31a0:	4e75           	rts
    31a2:	4e56 ffc0      	linkw %fp,#-64
    31a6:	48d7 38f8      	moveml %d3-%d7/%a3-%a5,%sp@
    31aa:	2a6e 000c      	moveal %fp@(12),%a5
    31ae:	2d6d 001e fffc 	movel %a5@(30),%fp@(-4)
    31b4:	2d6d 0026 fff8 	movel %a5@(38),%fp@(-8)
    31ba:	286d 0022      	moveal %a5@(34),%a4
    31be:	266d 0006      	moveal %a5@(6),%a3
    31c2:	0cae 0000 000a 	cmpil #10,%fp@(8)
    31c8:	0008 
    31ca:	6614           	bnes 31e0 <HIGH+0xae0>
    31cc:	2f2e fff8      	movel %fp@(-8),%sp@-
    31d0:	2f2d 0032      	movel %a5@(50),%sp@-
    31d4:	4854           	pea %a4@
    31d6:	4eb9 000a 4f6a 	jsr a4f6a <_bcopy>
    31dc:	4fef 000c      	lea %sp@(12),%sp
    31e0:	4878 0006      	pea 6 <SUPCONTEXTOFF>
    31e4:	486e fff0      	pea %fp@(-16)
    31e8:	4eb9 000a 4f44 	jsr a4f44 <_bzero>
    31ee:	504f           	addqw #8,%sp
    31f0:	1d6e 000b fff0 	moveb %fp@(11),%fp@(-16)
    31f6:	202b 0004      	movel %a3@(4),%d0
    31fa:	022e ff1f fff1 	andib #31,%fp@(-15)
    3200:	0200 0007      	andib #7,%d0
    3204:	eb88           	lsll #5,%d0
    3206:	812e fff1      	orb %d0,%fp@(-15)
    320a:	202b 0008      	movel %a3@(8),%d0
    320e:	d1ae fffc      	addl %d0,%fp@(-4)
    3212:	202e fffc      	movel %fp@(-4),%d0
    3216:	7210           	moveq #16,%d1
    3218:	e2a0           	asrl %d1,%d0
    321a:	022e ffe0 fff1 	andib #-32,%fp@(-15)
    3220:	0200 001f      	andib #31,%d0
    3224:	812e fff1      	orb %d0,%fp@(-15)
    3228:	202e fffc      	movel %fp@(-4),%d0
    322c:	e080           	asrl #8,%d0
    322e:	0200 00ff      	andib #-1,%d0
    3232:	1d40 fff2      	moveb %d0,%fp@(-14)
    3236:	1d6e ffff fff3 	moveb %fp@(-1),%fp@(-13)
    323c:	282e fff8      	movel %fp@(-8),%d4
    3240:	0684 0000 01ff 	addil #511,%d4
    3246:	0284 ffff fe00 	andil #-512,%d4
    324c:	2004           	movel %d4,%d0
    324e:	6c06           	bges 3256 <HIGH+0xb56>
    3250:	0680 0000 01ff 	addil #511,%d0
    3256:	e080           	asrl #8,%d0
    3258:	e280           	asrl #1,%d0
    325a:	1d40 fff4      	moveb %d0,%fp@(-12)
    325e:	7e00           	moveq #0,%d7
    3260:	2744 0036      	movel %d4,%a3@(54)
    3264:	276d 0032 0032 	movel %a5@(50),%a3@(50)
    326a:	486b 0010      	pea %a3@(16)
    326e:	486e ffe4      	pea %fp@(-28)
    3272:	486e fff0      	pea %fp@(-16)
    3276:	4eb9 000a 3dac 	jsr a3dac <_scdoit>
    327c:	4fef 000c      	lea %sp@(12),%sp
    3280:	2c00           	movel %d0,%d6
    3282:	6c06           	bges 328a <HIGH+0xb8a>
    3284:	70ff           	moveq #-1,%d0
    3286:	6000 012a      	braw 33b2 <HIGH+0xcb2>
    328a:	082e 0001 ffe4 	btst #1,%fp@(-28)
    3290:	6700 009c      	beqw 332e <HIGH+0xc2e>
    3294:	4878 0006      	pea 6 <SUPCONTEXTOFF>
    3298:	486e ffe8      	pea %fp@(-24)
    329c:	4eb9 000a 4f44 	jsr a4f44 <_bzero>
    32a2:	504f           	addqw #8,%sp
    32a4:	1d7c 0003 ffe8 	moveb #3,%fp@(-24)
    32aa:	202b 0004      	movel %a3@(4),%d0
    32ae:	022e ff1f ffe9 	andib #31,%fp@(-23)
    32b4:	0200 0007      	andib #7,%d0
    32b8:	eb88           	lsll #5,%d0
    32ba:	812e ffe9      	orb %d0,%fp@(-23)
    32be:	1d7c 0010 ffec 	moveb #16,%fp@(-20)
    32c4:	7000           	moveq #0,%d0
    32c6:	102e ffec      	moveb %fp@(-20),%d0
    32ca:	2740 0036      	movel %d0,%a3@(54)
    32ce:	276d 0032 0032 	movel %a5@(50),%a3@(50)
    32d4:	486b 0010      	pea %a3@(16)
    32d8:	486e ffe0      	pea %fp@(-32)
    32dc:	486e ffe8      	pea %fp@(-24)
    32e0:	4eb9 000a 3dac 	jsr a3dac <_scdoit>
    32e6:	4fef 000c      	lea %sp@(12),%sp
    32ea:	2a00           	movel %d0,%d5
    32ec:	7c04           	moveq #4,%d6
    32ee:	ba86           	cmpl %d6,%d5
    32f0:	6d1a           	blts 330c <HIGH+0xc0c>
    32f2:	4aae 0010      	tstl %fp@(16)
    32f6:	6700 00ac      	beqw 33a4 <HIGH+0xca4>
    32fa:	2f05           	movel %d5,%sp@-
    32fc:	2f2d 0032      	movel %a5@(50),%sp@-
    3300:	4eb9 000a 33bc 	jsr a33bc <_sd_pr_sense>
    3306:	504f           	addqw #8,%sp
    3308:	6000 009a      	braw 33a4 <HIGH+0xca4>
    330c:	4aae 0010      	tstl %fp@(16)
    3310:	6700 009e      	beqw 33b0 <HIGH+0xcb0>
    3314:	4879 000a 67fd 	pea a67fd <_sc_sense7_keys+0x47>
    331a:	4879 000a 67f0 	pea a67f0 <_sc_sense7_keys+0x3a>
    3320:	2079 0fef 0084 	moveal fef0084 <_end+0xfe34a70>,%a0
    3326:	4e90           	jsr %a0@
    3328:	504f           	addqw #8,%sp
    332a:	6000 0084      	braw 33b0 <HIGH+0xcb0>
    332e:	082e 0003 ffe4 	btst #3,%fp@(-28)
    3334:	6722           	beqs 3358 <HIGH+0xc58>
    3336:	4879 000a 680a 	pea a680a <_sc_sense7_keys+0x54>
    333c:	4eb9 000a 3d00 	jsr a3d00 <_sc_error>
    3342:	584f           	addqw #4,%sp
    3344:	263c 0018 6a00 	movel #1600000,%d3
    334a:	2239 000a 5da6 	movel a5da6 <_cpudelay>,%d1
    3350:	e2a3           	asrl %d1,%d3
    3352:	5383           	subql #1,%d3
    3354:	6f4e           	bles 33a4 <HIGH+0xca4>
    3356:	60fa           	bras 3352 <HIGH+0xc52>
    3358:	bc84           	cmpl %d4,%d6
    335a:	671e           	beqs 337a <HIGH+0xc7a>
    335c:	4aae 0010      	tstl %fp@(16)
    3360:	6742           	beqs 33a4 <HIGH+0xca4>
    3362:	2f04           	movel %d4,%sp@-
    3364:	2f06           	movel %d6,%sp@-
    3366:	4879 000a 6814 	pea a6814 <_sc_sense7_keys+0x5e>
    336c:	2079 0fef 0084 	moveal fef0084 <_end+0xfe34a70>,%a0
    3372:	4e90           	jsr %a0@
    3374:	4fef 000c      	lea %sp@(12),%sp
    3378:	602a           	bras 33a4 <HIGH+0xca4>
    337a:	0cae 0000 0008 	cmpil #8,%fp@(8)
    3380:	0008 
    3382:	6614           	bnes 3398 <HIGH+0xc98>
    3384:	2f2e fff8      	movel %fp@(-8),%sp@-
    3388:	4854           	pea %a4@
    338a:	2f2d 0032      	movel %a5@(50),%sp@-
    338e:	4eb9 000a 4f6a 	jsr a4f6a <_bcopy>
    3394:	4fef 000c      	lea %sp@(12),%sp
    3398:	4a84           	tstl %d4
    339a:	6704           	beqs 33a0 <HIGH+0xca0>
    339c:	2004           	movel %d4,%d0
    339e:	6012           	bras 33b2 <HIGH+0xcb2>
    33a0:	7001           	moveq #1,%d0
    33a2:	600e           	bras 33b2 <HIGH+0xcb2>
    33a4:	2007           	movel %d7,%d0
    33a6:	5287           	addql #1,%d7
    33a8:	7c10           	moveq #16,%d6
    33aa:	b086           	cmpl %d6,%d0
    33ac:	6d00 feb2      	bltw 3260 <HIGH+0xb60>
    33b0:	7000           	moveq #0,%d0
    33b2:	4cee 38f8 ffc0 	moveml %fp@(-64),%d3-%d7/%a3-%a5
    33b8:	4e5e           	unlk %fp
    33ba:	4e75           	rts
    33bc:	4e56 fff0      	linkw %fp,#-16
    33c0:	48d7 3084      	moveml %d2/%d7/%a4-%a5,%sp@
    33c4:	2a6e 0008      	moveal %fp@(8),%a5
    33c8:	4879 000a 6833 	pea a6833 <_sc_sense7_keys+0x7d>
    33ce:	2079 0fef 0084 	moveal fef0084 <_end+0xfe34a70>,%a0
    33d4:	4e90           	jsr %a0@
    33d6:	584f           	addqw #4,%sp
    33d8:	1015           	moveb %a5@,%d0
    33da:	0200 0070      	andib #112,%d0
    33de:	0c00 0060      	cmpib #96,%d0
    33e2:	6200 0096      	bhiw 347a <HIGH+0xd7a>
    33e6:	284d           	moveal %a5,%a4
    33e8:	7000           	moveq #0,%d0
    33ea:	1014           	moveb %a4@,%d0
    33ec:	e888           	lsrl #4,%d0
    33ee:	0200 0007      	andib #7,%d0
    33f2:	e580           	asll #2,%d0
    33f4:	41f9 000a 679a 	lea a679a <_sc_errct>,%a0
    33fa:	7200           	moveq #0,%d1
    33fc:	1214           	moveb %a4@,%d1
    33fe:	0201 000f      	andib #15,%d1
    3402:	b2b0 0800      	cmpl %a0@(00000000,%d0:l),%d1
    3406:	642c           	bccs 3434 <HIGH+0xd34>
    3408:	7000           	moveq #0,%d0
    340a:	1014           	moveb %a4@,%d0
    340c:	e888           	lsrl #4,%d0
    340e:	0200 0007      	andib #7,%d0
    3412:	e580           	asll #2,%d0
    3414:	41f9 000a 677e 	lea a677e <_sc_errors>,%a0
    341a:	2070 0800      	moveal %a0@(00000000,%d0:l),%a0
    341e:	7000           	moveq #0,%d0
    3420:	1014           	moveb %a4@,%d0
    3422:	0200 000f      	andib #15,%d0
    3426:	e580           	asll #2,%d0
    3428:	d1c0           	addal %d0,%a0
    342a:	2f10           	movel %a0@,%sp@-
    342c:	4879 000a 6838 	pea a6838 <_sc_sense7_keys+0x82>
    3432:	600c           	bras 3440 <HIGH+0xd40>
    3434:	7000           	moveq #0,%d0
    3436:	1015           	moveb %a5@,%d0
    3438:	2f00           	movel %d0,%sp@-
    343a:	4879 000a 683b 	pea a683b <_sc_sense7_keys+0x85>
    3440:	2079 0fef 0084 	moveal fef0084 <_end+0xfe34a70>,%a0
    3446:	4e90           	jsr %a0@
    3448:	504f           	addqw #8,%sp
    344a:	0814 0007      	btst #7,%a4@
    344e:	6700 00de      	beqw 352e <HIGH+0xe2e>
    3452:	7000           	moveq #0,%d0
    3454:	102c 0001      	moveb %a4@(1),%d0
    3458:	7210           	moveq #16,%d1
    345a:	e3a8           	lsll %d1,%d0
    345c:	7200           	moveq #0,%d1
    345e:	122c 0002      	moveb %a4@(2),%d1
    3462:	e189           	lsll #8,%d1
    3464:	8081           	orl %d1,%d0
    3466:	7200           	moveq #0,%d1
    3468:	122c 0003      	moveb %a4@(3),%d1
    346c:	8081           	orl %d1,%d0
    346e:	2f00           	movel %d0,%sp@-
    3470:	4879 000a 6844 	pea a6844 <_sc_sense7_keys+0x8e>
    3476:	6000 00ac      	braw 3524 <HIGH+0xe24>
    347a:	284d           	moveal %a5,%a4
    347c:	082c 0007 0002 	btst #7,%a4@(2)
    3482:	6710           	beqs 3494 <HIGH+0xd94>
    3484:	4879 000a 6853 	pea a6853 <_sc_sense7_keys+0x9d>
    348a:	2079 0fef 0084 	moveal fef0084 <_end+0xfe34a70>,%a0
    3490:	4e90           	jsr %a0@
    3492:	584f           	addqw #4,%sp
    3494:	082c 0006 0002 	btst #6,%a4@(2)
    349a:	6710           	beqs 34ac <HIGH+0xdac>
    349c:	4879 000a 685e 	pea a685e <_sc_sense7_keys+0xa8>
    34a2:	2079 0fef 0084 	moveal fef0084 <_end+0xfe34a70>,%a0
    34a8:	4e90           	jsr %a0@
    34aa:	584f           	addqw #4,%sp
    34ac:	102c 0002      	moveb %a4@(2),%d0
    34b0:	0200 000f      	andib #15,%d0
    34b4:	0c00 000e      	cmpib #14,%d0
    34b8:	641e           	bccs 34d8 <HIGH+0xdd8>
    34ba:	7000           	moveq #0,%d0
    34bc:	102c 0002      	moveb %a4@(2),%d0
    34c0:	0200 000f      	andib #15,%d0
    34c4:	e580           	asll #2,%d0
    34c6:	41f9 000a 67b6 	lea a67b6 <_sc_sense7_keys>,%a0
    34cc:	2f30 0800      	movel %a0@(00000000,%d0:l),%sp@-
    34d0:	4879 000a 686d 	pea a686d <_sc_sense7_keys+0xb7>
    34d6:	6012           	bras 34ea <HIGH+0xdea>
    34d8:	7000           	moveq #0,%d0
    34da:	102c 0002      	moveb %a4@(2),%d0
    34de:	0200 000f      	andib #15,%d0
    34e2:	2f00           	movel %d0,%sp@-
    34e4:	4879 000a 6870 	pea a6870 <_sc_sense7_keys+0xba>
    34ea:	2079 0fef 0084 	moveal fef0084 <_end+0xfe34a70>,%a0
    34f0:	4e90           	jsr %a0@
    34f2:	504f           	addqw #8,%sp
    34f4:	7000           	moveq #0,%d0
    34f6:	102c 0003      	moveb %a4@(3),%d0
    34fa:	7218           	moveq #24,%d1
    34fc:	e3a8           	lsll %d1,%d0
    34fe:	7200           	moveq #0,%d1
    3500:	122c 0004      	moveb %a4@(4),%d1
    3504:	7410           	moveq #16,%d2
    3506:	e5a9           	lsll %d2,%d1
    3508:	8081           	orl %d1,%d0
    350a:	7200           	moveq #0,%d1
    350c:	122c 0005      	moveb %a4@(5),%d1
    3510:	e189           	lsll #8,%d1
    3512:	8081           	orl %d1,%d0
    3514:	7200           	moveq #0,%d1
    3516:	122c 0006      	moveb %a4@(6),%d1
    351a:	8081           	orl %d1,%d0
    351c:	2f00           	movel %d0,%sp@-
    351e:	4879 000a 687d 	pea a687d <_sc_sense7_keys+0xc7>
    3524:	2079 0fef 0084 	moveal fef0084 <_end+0xfe34a70>,%a0
    352a:	4e90           	jsr %a0@
    352c:	504f           	addqw #8,%sp
    352e:	4879 000a 688b 	pea a688b <_sc_sense7_keys+0xd5>
    3534:	2079 0fef 0084 	moveal fef0084 <_end+0xfe34a70>,%a0
    353a:	4e90           	jsr %a0@
    353c:	584f           	addqw #4,%sp
    353e:	4cee 3084 fff0 	moveml %fp@(-16),%d2/%d7/%a4-%a5
    3544:	4e5e           	unlk %fp
    3546:	4e75           	rts
    3548:	4e56 0000      	linkw %fp,#0
    354c:	206e 0008      	moveal %fp@(8),%a0
    3550:	2028 0006      	movel %a0@(6),%d0
    3554:	7210           	moveq #16,%d1
    3556:	d081           	addl %d1,%d0
    3558:	2f00           	movel %d0,%sp@-
    355a:	4eb9 000a 1394 	jsr a1394 <_devclose>
    3560:	584f           	addqw #4,%sp
    3562:	4e5e           	unlk %fp
    3564:	4e75           	rts
    3566:	0000 4e56      	orib #86,%d0
    356a:	ffe0           	.short 0xffe0
    356c:	48d7 30e0      	moveml %d5-%d7/%a4-%a5,%sp@
    3570:	2a6e 0008      	moveal %fp@(8),%a5
    3574:	286d 0006      	moveal %a5@(6),%a4
    3578:	4878 004a      	pea 4a <CACR_CLEAR+0x42>
    357c:	4854           	pea %a4@
    357e:	4eb9 000a 4f44 	jsr a4f44 <_bzero>
    3584:	504f           	addqw #8,%sp
    3586:	700c           	moveq #12,%d0
    3588:	41ec 0014      	lea %a4@(20),%a0
    358c:	224d           	moveal %a5,%a1
    358e:	20d9           	movel %a1@+,%a0@+
    3590:	51c8 fffc      	dbf %d0,358e <HIGH+0xe8e>
    3594:	3091           	movew %a1@,%a0@
    3596:	297c 000a 6cec 	movel #683244,%a4@(22)
    359c:	0016 
    359e:	202d 000e      	movel %a5@(14),%d0
    35a2:	e680           	asrl #3,%d0
    35a4:	2940 0022      	movel %d0,%a4@(34)
    35a8:	4aac 0022      	tstl %a4@(34)
    35ac:	6606           	bnes 35b4 <HIGH+0xeb4>
    35ae:	7e04           	moveq #4,%d7
    35b0:	2947 0022      	movel %d7,%a4@(34)
    35b4:	486c 0014      	pea %a4@(20)
    35b8:	4eb9 000a 12cc 	jsr a12cc <_devopen>
    35be:	584f           	addqw #4,%sp
    35c0:	2e00           	movel %d0,%d7
    35c2:	6c06           	bges 35ca <HIGH+0xeca>
    35c4:	2007           	movel %d7,%d0
    35c6:	6000 01da      	braw 37a2 <HIGH+0x10a2>
    35ca:	202d 000e      	movel %a5@(14),%d0
    35ce:	7e07           	moveq #7,%d7
    35d0:	c087           	andl %d7,%d0
    35d2:	2940 0004      	movel %d0,%a4@(4)
    35d6:	7a00           	moveq #0,%d5
    35d8:	4878 0006      	pea 6 <SUPCONTEXTOFF>
    35dc:	486e fff8      	pea %fp@(-8)
    35e0:	4eb9 000a 4f44 	jsr a4f44 <_bzero>
    35e6:	504f           	addqw #8,%sp
    35e8:	422e fff8      	clrb %fp@(-8)
    35ec:	422e fffc      	clrb %fp@(-4)
    35f0:	42ac 003a      	clrl %a4@(58)
    35f4:	42ac 0036      	clrl %a4@(54)
    35f8:	486c 0014      	pea %a4@(20)
    35fc:	486e fff4      	pea %fp@(-12)
    3600:	486e fff8      	pea %fp@(-8)
    3604:	4eb9 000a 3dac 	jsr a3dac <_scdoit>
    360a:	4fef 000c      	lea %sp@(12),%sp
    360e:	5285           	addql #1,%d5
    3610:	7e02           	moveq #2,%d7
    3612:	ba87           	cmpl %d7,%d5
    3614:	6dc2           	blts 35d8 <HIGH+0xed8>
    3616:	2947 0010      	movel %d7,%a4@(16)
    361a:	1d7c 0003 fff8 	moveb #3,%fp@(-8)
    3620:	1d7c 000b fffc 	moveb #11,%fp@(-4)
    3626:	7000           	moveq #0,%d0
    3628:	102e fffc      	moveb %fp@(-4),%d0
    362c:	2940 003a      	movel %d0,%a4@(58)
    3630:	296d 0032 0036 	movel %a5@(50),%a4@(54)
    3636:	486c 0014      	pea %a4@(20)
    363a:	486e fff4      	pea %fp@(-12)
    363e:	486e fff8      	pea %fp@(-8)
    3642:	4eb9 000a 3dac 	jsr a3dac <_scdoit>
    3648:	4fef 000c      	lea %sp@(12),%sp
    364c:	7e0b           	moveq #11,%d7
    364e:	b087           	cmpl %d7,%d0
    3650:	6758           	beqs 36aa <HIGH+0xfaa>
    3652:	7e01           	moveq #1,%d7
    3654:	2947 0010      	movel %d7,%a4@(16)
    3658:	1d7c 0003 fff8 	moveb #3,%fp@(-8)
    365e:	1d7c 0010 fffc 	moveb #16,%fp@(-4)
    3664:	7000           	moveq #0,%d0
    3666:	102e fffc      	moveb %fp@(-4),%d0
    366a:	2940 003a      	movel %d0,%a4@(58)
    366e:	296d 0032 0036 	movel %a5@(50),%a4@(54)
    3674:	486c 0014      	pea %a4@(20)
    3678:	486e fff4      	pea %fp@(-12)
    367c:	486e fff8      	pea %fp@(-8)
    3680:	4eb9 000a 3dac 	jsr a3dac <_scdoit>
    3686:	4fef 000c      	lea %sp@(12),%sp
    368a:	2e00           	movel %d0,%d7
    368c:	7cff           	moveq #-1,%d6
    368e:	be86           	cmpl %d6,%d7
    3690:	6618           	bnes 36aa <HIGH+0xfaa>
    3692:	2f07           	movel %d7,%sp@-
    3694:	4879 000a 6be4 	pea a6be4 <_stdriver+0x20>
    369a:	2079 0fef 0084 	moveal fef0084 <_end+0xfe34a70>,%a0
    36a0:	4e90           	jsr %a0@
    36a2:	504f           	addqw #8,%sp
    36a4:	70ff           	moveq #-1,%d0
    36a6:	6000 00fa      	braw 37a2 <HIGH+0x10a2>
    36aa:	0cac 0000 0002 	cmpil #2,%a4@(16)
    36b0:	0010 
    36b2:	6634           	bnes 36e8 <HIGH+0xfe8>
    36b4:	7e0d           	moveq #13,%d7
    36b6:	2b47 0026      	movel %d7,%a5@(38)
    36ba:	4878 0001      	pea 1 <CACR_ENABLE>
    36be:	4855           	pea %a5@
    36c0:	4878 0083      	pea 83 <CACR_CLEAR+0x7b>
    36c4:	4eb9 000a 38bc 	jsr a38bc <_stcmd>
    36ca:	4fef 000c      	lea %sp@(12),%sp
    36ce:	4a80           	tstl %d0
    36d0:	6616           	bnes 36e8 <HIGH+0xfe8>
    36d2:	4879 000a 6c02 	pea a6c02 <_stdriver+0x3e>
    36d8:	2079 0fef 0084 	moveal fef0084 <_end+0xfe34a70>,%a0
    36de:	4e90           	jsr %a0@
    36e0:	584f           	addqw #4,%sp
    36e2:	70ff           	moveq #-1,%d0
    36e4:	6000 00bc      	braw 37a2 <HIGH+0x10a2>
    36e8:	42ad 0026      	clrl %a5@(38)
    36ec:	42a7           	clrl %sp@-
    36ee:	4855           	pea %a5@
    36f0:	4878 0001      	pea 1 <CACR_ENABLE>
    36f4:	4eb9 000a 38bc 	jsr a38bc <_stcmd>
    36fa:	4fef 000c      	lea %sp@(12),%sp
    36fe:	4a80           	tstl %d0
    3700:	6632           	bnes 3734 <HIGH+0x1034>
    3702:	42a7           	clrl %sp@-
    3704:	4855           	pea %a5@
    3706:	4878 0001      	pea 1 <CACR_ENABLE>
    370a:	4eb9 000a 38bc 	jsr a38bc <_stcmd>
    3710:	4fef 000c      	lea %sp@(12),%sp
    3714:	4a80           	tstl %d0
    3716:	661c           	bnes 3734 <HIGH+0x1034>
    3718:	4878 0001      	pea 1 <CACR_ENABLE>
    371c:	4855           	pea %a5@
    371e:	4878 0001      	pea 1 <CACR_ENABLE>
    3722:	4eb9 000a 38bc 	jsr a38bc <_stcmd>
    3728:	4fef 000c      	lea %sp@(12),%sp
    372c:	4a80           	tstl %d0
    372e:	6604           	bnes 3734 <HIGH+0x1034>
    3730:	70ff           	moveq #-1,%d0
    3732:	606e           	bras 37a2 <HIGH+0x10a2>
    3734:	2b7c 0000 0200 	movel #512,%a5@(38)
    373a:	0026 
    373c:	2b6d 0032 0022 	movel %a5@(50),%a5@(34)
    3742:	42a7           	clrl %sp@-
    3744:	4855           	pea %a5@
    3746:	4878 0008      	pea 8 <CACR_CLEAR>
    374a:	4eb9 000a 38bc 	jsr a38bc <_stcmd>
    3750:	4fef 000c      	lea %sp@(12),%sp
    3754:	7efe           	moveq #-2,%d7
    3756:	b087           	cmpl %d7,%d0
    3758:	6618           	bnes 3772 <HIGH+0x1072>
    375a:	42ad 0026      	clrl %a5@(38)
    375e:	4878 0001      	pea 1 <CACR_ENABLE>
    3762:	4855           	pea %a5@
    3764:	4878 0084      	pea 84 <CACR_CLEAR+0x7c>
    3768:	4eb9 000a 38bc 	jsr a38bc <_stcmd>
    376e:	4fef 000c      	lea %sp@(12),%sp
    3772:	42ad 0026      	clrl %a5@(38)
    3776:	4878 0001      	pea 1 <CACR_ENABLE>
    377a:	4855           	pea %a5@
    377c:	4878 0001      	pea 1 <CACR_ENABLE>
    3780:	4eb9 000a 38bc 	jsr a38bc <_stcmd>
    3786:	4fef 000c      	lea %sp@(12),%sp
    378a:	2c2d 0012      	movel %a5@(18),%d6
    378e:	51ce 001c      	dbf %d6,37ac <HIGH+0x10ac>
    3792:	4246           	clrw %d6
    3794:	5386           	subql #1,%d6
    3796:	6414           	bccs 37ac <HIGH+0x10ac>
    3798:	42ac 0008      	clrl %a4@(8)
    379c:	42ac 000c      	clrl %a4@(12)
    37a0:	7000           	moveq #0,%d0
    37a2:	4cee 30e0 ffe0 	moveml %fp@(-32),%d5-%d7/%a4-%a5
    37a8:	4e5e           	unlk %fp
    37aa:	4e75           	rts
    37ac:	42ad 0026      	clrl %a5@(38)
    37b0:	4878 0001      	pea 1 <CACR_ENABLE>
    37b4:	4855           	pea %a5@
    37b6:	4878 0081      	pea 81 <CACR_CLEAR+0x79>
    37ba:	4eb9 000a 38bc 	jsr a38bc <_stcmd>
    37c0:	4fef 000c      	lea %sp@(12),%sp
    37c4:	4a80           	tstl %d0
    37c6:	66c6           	bnes 378e <HIGH+0x108e>
    37c8:	70ff           	moveq #-1,%d0
    37ca:	60d6           	bras 37a2 <HIGH+0x10a2>
    37cc:	4e56 fff8      	linkw %fp,#-8
    37d0:	48d7 3000      	moveml %a4-%a5,%sp@
    37d4:	2a6e 0008      	moveal %fp@(8),%a5
    37d8:	286d 0006      	moveal %a5@(6),%a4
    37dc:	0cac 0000 000a 	cmpil #10,%a4@(12)
    37e2:	000c 
    37e4:	6612           	bnes 37f8 <HIGH+0x10f8>
    37e6:	42a7           	clrl %sp@-
    37e8:	4855           	pea %a5@
    37ea:	4878 0010      	pea 10 <CACR_CLEAR+0x8>
    37ee:	4eb9 000a 38bc 	jsr a38bc <_stcmd>
    37f4:	4fef 000c      	lea %sp@(12),%sp
    37f8:	42a7           	clrl %sp@-
    37fa:	4855           	pea %a5@
    37fc:	4878 0001      	pea 1 <CACR_ENABLE>
    3800:	4eb9 000a 38bc 	jsr a38bc <_stcmd>
    3806:	4fef 000c      	lea %sp@(12),%sp
    380a:	0cac 0000 0002 	cmpil #2,%a4@(16)
    3810:	0010 
    3812:	6626           	bnes 383a <HIGH+0x113a>
    3814:	720d           	moveq #13,%d1
    3816:	2b41 0026      	movel %d1,%a5@(38)
    381a:	4878 0001      	pea 1 <CACR_ENABLE>
    381e:	4855           	pea %a5@
    3820:	4878 0083      	pea 83 <CACR_CLEAR+0x7b>
    3824:	4eb9 000a 38bc 	jsr a38bc <_stcmd>
    382a:	4fef 000c      	lea %sp@(12),%sp
    382e:	4a80           	tstl %d0
    3830:	6636           	bnes 3868 <HIGH+0x1168>
    3832:	4879 000a 6c23 	pea a6c23 <_stdriver+0x5f>
    3838:	6022           	bras 385c <HIGH+0x115c>
    383a:	42ad 0026      	clrl %a5@(38)
    383e:	4878 0001      	pea 1 <CACR_ENABLE>
    3842:	4855           	pea %a5@
    3844:	4878 0083      	pea 83 <CACR_CLEAR+0x7b>
    3848:	4eb9 000a 38bc 	jsr a38bc <_stcmd>
    384e:	4fef 000c      	lea %sp@(12),%sp
    3852:	4a80           	tstl %d0
    3854:	6612           	bnes 3868 <HIGH+0x1168>
    3856:	4879 000a 6c45 	pea a6c45 <_stdriver+0x81>
    385c:	2079 0fef 0084 	moveal fef0084 <_end+0xfe34a70>,%a0
    3862:	4e90           	jsr %a0@
    3864:	584f           	addqw #4,%sp
    3866:	70ff           	moveq #-1,%d0
    3868:	4cee 3000 fff8 	moveml %fp@(-8),%a4-%a5
    386e:	4e5e           	unlk %fp
    3870:	4e75           	rts
    3872:	4e56 fff8      	linkw %fp,#-8
    3876:	48d7 3000      	moveml %a4-%a5,%sp@
    387a:	2a6e 0008      	moveal %fp@(8),%a5
    387e:	286d 0006      	moveal %a5@(6),%a4
    3882:	4aac 0008      	tstl %a4@(8)
    3886:	6708           	beqs 3890 <HIGH+0x1190>
    3888:	42ac 0008      	clrl %a4@(8)
    388c:	7000           	moveq #0,%d0
    388e:	6022           	bras 38b2 <HIGH+0x11b2>
    3890:	4878 0001      	pea 1 <CACR_ENABLE>
    3894:	4855           	pea %a5@
    3896:	0cae 0000 0002 	cmpil #2,%fp@(12)
    389c:	000c 
    389e:	6604           	bnes 38a4 <HIGH+0x11a4>
    38a0:	700a           	moveq #10,%d0
    38a2:	6002           	bras 38a6 <HIGH+0x11a6>
    38a4:	7008           	moveq #8,%d0
    38a6:	2f00           	movel %d0,%sp@-
    38a8:	4eb9 000a 38bc 	jsr a38bc <_stcmd>
    38ae:	4fef 000c      	lea %sp@(12),%sp
    38b2:	4cee 3000 fff8 	moveml %fp@(-8),%a4-%a5
    38b8:	4e5e           	unlk %fp
    38ba:	4e75           	rts
    38bc:	4e56 ffb4      	linkw %fp,#-76
    38c0:	48d7 3ce0      	moveml %d5-%d7/%a2-%a5,%sp@
    38c4:	2a6e 000c      	moveal %fp@(12),%a5
    38c8:	2d6d 0026 ffe4 	movel %a5@(38),%fp@(-28)
    38ce:	246d 0006      	moveal %a5@(6),%a2
    38d2:	266d 0022      	moveal %a5@(34),%a3
    38d6:	0cae 0000 000a 	cmpil #10,%fp@(8)
    38dc:	0008 
    38de:	6624           	bnes 3904 <HIGH+0x1204>
    38e0:	202d 0032      	movel %a5@(50),%d0
    38e4:	7e10           	moveq #16,%d7
    38e6:	d087           	addl %d7,%d0
    38e8:	b7c0           	cmpal %d0,%a3
    38ea:	6718           	beqs 3904 <HIGH+0x1204>
    38ec:	2f2e ffe4      	movel %fp@(-28),%sp@-
    38f0:	202d 0032      	movel %a5@(50),%d0
    38f4:	d087           	addl %d7,%d0
    38f6:	2f00           	movel %d0,%sp@-
    38f8:	4853           	pea %a3@
    38fa:	4eb9 000a 4f6a 	jsr a4f6a <_bcopy>
    3900:	4fef 000c      	lea %sp@(12),%sp
    3904:	4878 0006      	pea 6 <SUPCONTEXTOFF>
    3908:	486e fff8      	pea %fp@(-8)
    390c:	4eb9 000a 4f44 	jsr a4f44 <_bzero>
    3912:	504f           	addqw #8,%sp
    3914:	1d6e 000b fff8 	moveb %fp@(11),%fp@(-8)
    391a:	202a 0004      	movel %a2@(4),%d0
    391e:	022e ff1f fff9 	andib #31,%fp@(-7)
    3924:	0200 0007      	andib #7,%d0
    3928:	eb88           	lsll #5,%d0
    392a:	812e fff9      	orb %d0,%fp@(-7)
    392e:	202e ffe4      	movel %fp@(-28),%d0
    3932:	0680 0000 01ff 	addil #511,%d0
    3938:	0280 ffff fe00 	andil #-512,%d0
    393e:	4a80           	tstl %d0
    3940:	6c06           	bges 3948 <HIGH+0x1248>
    3942:	0680 0000 01ff 	addil #511,%d0
    3948:	e080           	asrl #8,%d0
    394a:	e280           	asrl #1,%d0
    394c:	2a00           	movel %d0,%d5
    394e:	7210           	moveq #16,%d1
    3950:	e2a0           	asrl %d1,%d0
    3952:	1d40 fffa      	moveb %d0,%fp@(-6)
    3956:	2005           	movel %d5,%d0
    3958:	e080           	asrl #8,%d0
    395a:	0200 00ff      	andib #-1,%d0
    395e:	1d40 fffb      	moveb %d0,%fp@(-5)
    3962:	0205 00ff      	andib #-1,%d5
    3966:	1d45 fffc      	moveb %d5,%fp@(-4)
    396a:	202d 0032      	movel %a5@(50),%d0
    396e:	d081           	addl %d1,%d0
    3970:	2540 0036      	movel %d0,%a2@(54)
    3974:	202e ffe4      	movel %fp@(-28),%d0
    3978:	0680 0000 01ff 	addil #511,%d0
    397e:	0280 ffff fe00 	andil #-512,%d0
    3984:	2540 003a      	movel %d0,%a2@(58)
    3988:	202e 0008      	movel %fp@(8),%d0
    398c:	0c80 0000 0084 	cmpil #132,%d0
    3992:	6200 0122      	bhiw 3ab6 <HIGH+0x13b6>
    3996:	41fa 013a      	lea %pc@(3ad2 <HIGH+0x13d2>),%a0
    399a:	7209           	moveq #9,%d1
    399c:	b018           	cmpb %a0@+,%d0
    399e:	54c9 fffc      	dbcc %d1,399c <HIGH+0x129c>
    39a2:	6600 0112      	bnew 3ab6 <HIGH+0x13b6>
    39a6:	d241           	addw %d1,%d1
    39a8:	303b 1006      	movew %pc@(39b0 <HIGH+0x12b0>,%d1:w),%d0
    39ac:	4efb 0002      	jmp %pc@(39b0 <HIGH+0x12b0>,%d0:w)
    39b0:	00e4           	.short 0x00e4
    39b2:	00e4           	.short 0x00e4
    39b4:	00ee           	.short 0x00ee
    39b6:	00ee           	.short 0x00ee
    39b8:	00de           	.short 0x00de
    39ba:	0076 00e4 00bc 	oriw #228,%fp@(ffffffbc,%d0:w)
    39c0:	0014 0046      	orib #70,%a4@
    39c4:	42aa 0036      	clrl %a2@(54)
    39c8:	42aa 003a      	clrl %a2@(58)
    39cc:	0caa 0000 0002 	cmpil #2,%a2@(16)
    39d2:	0010 
    39d4:	6610           	bnes 39e6 <HIGH+0x12e6>
    39d6:	2d7c 0000 0084 	movel #132,%fp@(-32)
    39dc:	ffe0 
    39de:	1d7c 0015 fff8 	moveb #21,%fp@(-8)
    39e4:	6040           	bras 3a26 <HIGH+0x1326>
    39e6:	1d7c 000d fff8 	moveb #13,%fp@(-8)
    39ec:	1d7c 0026 fffa 	moveb #38,%fp@(-6)
    39f2:	6000 00e8      	braw 3adc <HIGH+0x13dc>
    39f6:	42aa 0036      	clrl %a2@(54)
    39fa:	42aa 003a      	clrl %a2@(58)
    39fe:	0caa 0000 0002 	cmpil #2,%a2@(16)
    3a04:	0010 
    3a06:	660e           	bnes 3a16 <HIGH+0x1316>
    3a08:	7e05           	moveq #5,%d7
    3a0a:	2d47 ffe0      	movel %d7,%fp@(-32)
    3a0e:	1d7c 0015 fff8 	moveb #21,%fp@(-8)
    3a14:	6010           	bras 3a26 <HIGH+0x1326>
    3a16:	1d7c 000d fff8 	moveb #13,%fp@(-8)
    3a1c:	1d7c 0027 fffa 	moveb #39,%fp@(-6)
    3a22:	6000 00b8      	braw 3adc <HIGH+0x13dc>
    3a26:	286d 0032      	moveal %a5@(50),%a4
    3a2a:	4878 000e      	pea e <CACR_CLEAR+0x6>
    3a2e:	4854           	pea %a4@
    3a30:	4eb9 000a 4f44 	jsr a4f44 <_bzero>
    3a36:	504f           	addqw #8,%sp
    3a38:	08ec 0000 000c 	bset #0,%a4@(12)
    3a3e:	022c ff8f 0002 	andib #-113,%a4@(2)
    3a44:	002c 0010 0002 	orib #16,%a4@(2)
    3a4a:	196e ffe3 0004 	moveb %fp@(-29),%a4@(4)
    3a50:	197c 0008 0003 	moveb #8,%a4@(3)
    3a56:	254c 0036      	movel %a4,%a2@(54)
    3a5a:	1d7c 000d fffc 	moveb #13,%fp@(-4)
    3a60:	7000           	moveq #0,%d0
    3a62:	102e fffc      	moveb %fp@(-4),%d0
    3a66:	2540 003a      	movel %d0,%a2@(58)
    3a6a:	6070           	bras 3adc <HIGH+0x13dc>
    3a6c:	1d7c 0011 fff8 	moveb #17,%fp@(-8)
    3a72:	022e ffe0 fff9 	andib #-32,%fp@(-7)
    3a78:	002e 0001 fff9 	orib #1,%fp@(-7)
    3a7e:	1d7c 0001 fffc 	moveb #1,%fp@(-4)
    3a84:	42aa 0036      	clrl %a2@(54)
    3a88:	42aa 003a      	clrl %a2@(58)
    3a8c:	604e           	bras 3adc <HIGH+0x13dc>
    3a8e:	1d7c 0001 fffc 	moveb #1,%fp@(-4)
    3a94:	42aa 0036      	clrl %a2@(54)
    3a98:	42aa 003a      	clrl %a2@(58)
    3a9c:	603e           	bras 3adc <HIGH+0x13dc>
    3a9e:	0caa 0000 0002 	cmpil #2,%a2@(16)
    3aa4:	0010 
    3aa6:	6634           	bnes 3adc <HIGH+0x13dc>
    3aa8:	022e ffe0 fff9 	andib #-32,%fp@(-7)
    3aae:	002e 0001 fff9 	orib #1,%fp@(-7)
    3ab4:	6026           	bras 3adc <HIGH+0x13dc>
    3ab6:	4aae 0010      	tstl %fp@(16)
    3aba:	6710           	beqs 3acc <HIGH+0x13cc>
    3abc:	4879 000a 6c67 	pea a6c67 <_stdriver+0xa3>
    3ac2:	2079 0fef 0084 	moveal fef0084 <_end+0xfe34a70>,%a0
    3ac8:	4e90           	jsr %a0@
    3aca:	584f           	addqw #4,%sp
    3acc:	7000           	moveq #0,%d0
    3ace:	6000 0226      	braw 3cf6 <SAVE+0x76>
    3ad2:	8483           	orl %d3,%d2
    3ad4:	811b           	orb %d0,%a3@+
    3ad6:	1510           	moveb %a0@,%a2@-
    3ad8:	0a08           	.short 0x0a08
    3ada:	0100           	btst %d0,%d0
    3adc:	486a 0014      	pea %a2@(20)
    3ae0:	486e ffec      	pea %fp@(-20)
    3ae4:	486e fff8      	pea %fp@(-8)
    3ae8:	4eb9 000a 3dac 	jsr a3dac <_scdoit>
    3aee:	4fef 000c      	lea %sp@(12),%sp
    3af2:	2e00           	movel %d0,%d7
    3af4:	beae ffe4      	cmpl %fp@(-28),%d7
    3af8:	6f04           	bles 3afe <HIGH+0x13fe>
    3afa:	2e2e ffe4      	movel %fp@(-28),%d7
    3afe:	7cff           	moveq #-1,%d6
    3b00:	be86           	cmpl %d6,%d7
    3b02:	67c8           	beqs 3acc <HIGH+0x13cc>
    3b04:	0cae 0000 0008 	cmpil #8,%fp@(8)
    3b0a:	0008 
    3b0c:	6638           	bnes 3b46 <HIGH+0x1446>
    3b0e:	beae ffe4      	cmpl %fp@(-28),%d7
    3b12:	6f08           	bles 3b1c <HIGH+0x141c>
    3b14:	4aae ffe4      	tstl %fp@(-28)
    3b18:	6606           	bnes 3b20 <HIGH+0x1420>
    3b1a:	602a           	bras 3b46 <HIGH+0x1446>
    3b1c:	4a87           	tstl %d7
    3b1e:	6726           	beqs 3b46 <HIGH+0x1446>
    3b20:	beae ffe4      	cmpl %fp@(-28),%d7
    3b24:	6f06           	bles 3b2c <HIGH+0x142c>
    3b26:	202e ffe4      	movel %fp@(-28),%d0
    3b2a:	6002           	bras 3b2e <HIGH+0x142e>
    3b2c:	2007           	movel %d7,%d0
    3b2e:	2f00           	movel %d0,%sp@-
    3b30:	4853           	pea %a3@
    3b32:	202d 0032      	movel %a5@(50),%d0
    3b36:	7c10           	moveq #16,%d6
    3b38:	d086           	addl %d6,%d0
    3b3a:	2f00           	movel %d0,%sp@-
    3b3c:	4eb9 000a 4f6a 	jsr a4f6a <_bcopy>
    3b42:	4fef 000c      	lea %sp@(12),%sp
    3b46:	082e 0001 ffec 	btst #1,%fp@(-20)
    3b4c:	6700 017a      	beqw 3cc8 <SAVE+0x48>
    3b50:	4878 0006      	pea 6 <SUPCONTEXTOFF>
    3b54:	486e fff0      	pea %fp@(-16)
    3b58:	4eb9 000a 4f44 	jsr a4f44 <_bzero>
    3b5e:	504f           	addqw #8,%sp
    3b60:	1d7c 0003 fff0 	moveb #3,%fp@(-16)
    3b66:	202a 0004      	movel %a2@(4),%d0
    3b6a:	022e ff1f fff1 	andib #31,%fp@(-15)
    3b70:	0200 0007      	andib #7,%d0
    3b74:	eb88           	lsll #5,%d0
    3b76:	812e fff1      	orb %d0,%fp@(-15)
    3b7a:	0caa 0000 0002 	cmpil #2,%a2@(16)
    3b80:	0010 
    3b82:	6608           	bnes 3b8c <HIGH+0x148c>
    3b84:	1d7c 000b fff4 	moveb #11,%fp@(-12)
    3b8a:	6006           	bras 3b92 <HIGH+0x1492>
    3b8c:	1d7c 0010 fff4 	moveb #16,%fp@(-12)
    3b92:	7000           	moveq #0,%d0
    3b94:	102e fff4      	moveb %fp@(-12),%d0
    3b98:	2540 003a      	movel %d0,%a2@(58)
    3b9c:	2d40 ffdc      	movel %d0,%fp@(-36)
    3ba0:	256d 0032 0036 	movel %a5@(50),%a2@(54)
    3ba6:	486a 0014      	pea %a2@(20)
    3baa:	486e ffe8      	pea %fp@(-24)
    3bae:	486e fff0      	pea %fp@(-16)
    3bb2:	4eb9 000a 3dac 	jsr a3dac <_scdoit>
    3bb8:	4fef 000c      	lea %sp@(12),%sp
    3bbc:	b0ae ffdc      	cmpl %fp@(-36),%d0
    3bc0:	6722           	beqs 3be4 <HIGH+0x14e4>
    3bc2:	4aae 0010      	tstl %fp@(16)
    3bc6:	6710           	beqs 3bd8 <HIGH+0x14d8>
    3bc8:	4879 000a 6c7c 	pea a6c7c <_stdriver+0xb8>
    3bce:	2079 0fef 0084 	moveal fef0084 <_end+0xfe34a70>,%a0
    3bd4:	4e90           	jsr %a0@
    3bd6:	584f           	addqw #4,%sp
    3bd8:	7e01           	moveq #1,%d7
    3bda:	2547 0008      	movel %d7,%a2@(8)
    3bde:	7000           	moveq #0,%d0
    3be0:	6000 0114      	braw 3cf6 <SAVE+0x76>
    3be4:	0caa 0000 0002 	cmpil #2,%a2@(16)
    3bea:	0010 
    3bec:	6600 008e      	bnew 3c7c <HIGH+0x157c>
    3bf0:	2d6d 0032 ffd4 	movel %a5@(50),%fp@(-44)
    3bf6:	7c01           	moveq #1,%d6
    3bf8:	2546 0008      	movel %d6,%a2@(8)
    3bfc:	206e ffd4      	moveal %fp@(-44),%a0
    3c00:	7000           	moveq #0,%d0
    3c02:	1028 0002      	moveb %a0@(2),%d0
    3c06:	0200 000f      	andib #15,%d0
    3c0a:	7c08           	moveq #8,%d6
    3c0c:	b086           	cmpl %d6,%d0
    3c0e:	6608           	bnes 3c18 <HIGH+0x1518>
    3c10:	0c28 0034 0008 	cmpib #52,%a0@(8)
    3c16:	677c           	beqs 3c94 <SAVE+0x14>
    3c18:	206e ffd4      	moveal %fp@(-44),%a0
    3c1c:	0828 0007 0002 	btst #7,%a0@(2)
    3c22:	6600 00d0      	bnew 3cf4 <SAVE+0x74>
    3c26:	4aae 0010      	tstl %fp@(16)
    3c2a:	6700 00c8      	beqw 3cf4 <SAVE+0x74>
    3c2e:	4879 000a 6c8d 	pea a6c8d <_stdriver+0xc9>
    3c34:	2079 0fef 0084 	moveal fef0084 <_end+0xfe34a70>,%a0
    3c3a:	4e90           	jsr %a0@
    3c3c:	584f           	addqw #4,%sp
    3c3e:	206e ffd4      	moveal %fp@(-44),%a0
    3c42:	7000           	moveq #0,%d0
    3c44:	1028 0002      	moveb %a0@(2),%d0
    3c48:	0200 000f      	andib #15,%d0
    3c4c:	2f00           	movel %d0,%sp@-
    3c4e:	4879 000a 6c99 	pea a6c99 <_stdriver+0xd5>
    3c54:	2079 0fef 0084 	moveal fef0084 <_end+0xfe34a70>,%a0
    3c5a:	4e90           	jsr %a0@
    3c5c:	504f           	addqw #8,%sp
    3c5e:	206e ffd4      	moveal %fp@(-44),%a0
    3c62:	7000           	moveq #0,%d0
    3c64:	1028 0008      	moveb %a0@(8),%d0
    3c68:	2f00           	movel %d0,%sp@-
    3c6a:	4879 000a 6caa 	pea a6caa <_stdriver+0xe6>
    3c70:	2079 0fef 0084 	moveal fef0084 <_end+0xfe34a70>,%a0
    3c76:	4e90           	jsr %a0@
    3c78:	504f           	addqw #8,%sp
    3c7a:	6078           	bras 3cf4 <SAVE+0x74>
    3c7c:	2d6d 0032 ffd0 	movel %a5@(50),%fp@(-48)
    3c82:	7c01           	moveq #1,%d6
    3c84:	2546 0008      	movel %d6,%a2@(8)
    3c88:	206d 0032      	moveal %a5@(50),%a0
    3c8c:	0c68 86a8 0004 	cmpiw #-31064,%a0@(4)
    3c92:	6604           	bnes 3c98 <SAVE+0x18>
    3c94:	70fe           	moveq #-2,%d0
    3c96:	605e           	bras 3cf6 <SAVE+0x76>
    3c98:	206e ffd0      	moveal %fp@(-48),%a0
    3c9c:	0828 0000 0004 	btst #0,%a0@(4)
    3ca2:	6650           	bnes 3cf4 <SAVE+0x74>
    3ca4:	4aae 0010      	tstl %fp@(16)
    3ca8:	674a           	beqs 3cf4 <SAVE+0x74>
    3caa:	206d 0032      	moveal %a5@(50),%a0
    3cae:	7000           	moveq #0,%d0
    3cb0:	3028 0004      	movew %a0@(4),%d0
    3cb4:	2f00           	movel %d0,%sp@-
    3cb6:	4879 000a 6cb8 	pea a6cb8 <_stdriver+0xf4>
    3cbc:	2079 0fef 0084 	moveal fef0084 <_end+0xfe34a70>,%a0
    3cc2:	4e90           	jsr %a0@
    3cc4:	504f           	addqw #8,%sp
    3cc6:	602c           	bras 3cf4 <SAVE+0x74>
    3cc8:	beae ffe4      	cmpl %fp@(-28),%d7
    3ccc:	6d10           	blts 3cde <SAVE+0x5e>
    3cce:	4aae ffe4      	tstl %fp@(-28)
    3cd2:	6706           	beqs 3cda <SAVE+0x5a>
    3cd4:	202e ffe4      	movel %fp@(-28),%d0
    3cd8:	601c           	bras 3cf6 <SAVE+0x76>
    3cda:	7001           	moveq #1,%d0
    3cdc:	6018           	bras 3cf6 <SAVE+0x76>
    3cde:	4aae 0010      	tstl %fp@(16)
    3ce2:	6710           	beqs 3cf4 <SAVE+0x74>
    3ce4:	4879 000a 6cc6 	pea a6cc6 <_stdriver+0x102>
    3cea:	2079 0fef 0084 	moveal fef0084 <_end+0xfe34a70>,%a0
    3cf0:	4e90           	jsr %a0@
    3cf2:	584f           	addqw #4,%sp
    3cf4:	2007           	movel %d7,%d0
    3cf6:	4cee 3ce0 ffb4 	moveml %fp@(-76),%d5-%d7/%a2-%a5
    3cfc:	4e5e           	unlk %fp
    3cfe:	4e75           	rts
    3d00:	4e56 0000      	linkw %fp,#0
    3d04:	2f2e 0008      	movel %fp@(8),%sp@-
    3d08:	4879 000a 6d1c 	pea a6d1c <_seqerr_msg+0x12>
    3d0e:	2079 0fef 0084 	moveal fef0084 <_end+0xfe34a70>,%a0
    3d14:	4e90           	jsr %a0@
    3d16:	504f           	addqw #8,%sp
    3d18:	4e5e           	unlk %fp
    3d1a:	4e75           	rts
    3d1c:	4e56 ffd0      	linkw %fp,#-48
    3d20:	48d7 3080      	moveml %d7/%a4-%a5,%sp@
    3d24:	2a6e 0008      	moveal %fp@(8),%a5
    3d28:	486e ffe0      	pea %fp@(-32)
    3d2c:	4878 0001      	pea 1 <CACR_ENABLE>
    3d30:	4eb9 000a 4ed4 	jsr a4ed4 <_idprom>
    3d36:	504f           	addqw #8,%sp
    3d38:	7e01           	moveq #1,%d7
    3d3a:	b087           	cmpl %d7,%d0
    3d3c:	6612           	bnes 3d50 <SAVE+0xd0>
    3d3e:	0c2e 0001 ffe1 	cmpib #1,%fp@(-31)
    3d44:	660a           	bnes 3d50 <SAVE+0xd0>
    3d46:	2e3c 0008 0000 	movel #524288,%d7
    3d4c:	7202           	moveq #2,%d1
    3d4e:	6008           	bras 3d58 <SAVE+0xd8>
    3d50:	2e3c 0020 0000 	movel #2097152,%d7
    3d56:	7206           	moveq #6,%d1
    3d58:	2d41 ffdc      	movel %d1,%fp@(-36)
    3d5c:	0cad 0000 0002 	cmpil #2,%a5@(10)
    3d62:	000a 
    3d64:	6c0e           	bges 3d74 <SAVE+0xf4>
    3d66:	202d 000a      	movel %a5@(10),%d0
    3d6a:	720e           	moveq #14,%d1
    3d6c:	e3a0           	asll %d1,%d0
    3d6e:	d087           	addl %d7,%d0
    3d70:	2b40 000a      	movel %d0,%a5@(10)
    3d74:	4878 0010      	pea 10 <CACR_CLEAR+0x8>
    3d78:	2f2d 000a      	movel %a5@(10),%sp@-
    3d7c:	2f2e ffdc      	movel %fp@(-36),%sp@-
    3d80:	4eb9 000a 148e 	jsr a148e <_devalloc>
    3d86:	4fef 000c      	lea %sp@(12),%sp
    3d8a:	2b40 002e      	movel %d0,%a5@(46)
    3d8e:	4aad 002e      	tstl %a5@(46)
    3d92:	6604           	bnes 3d98 <SAVE+0x118>
    3d94:	70ff           	moveq #-1,%d0
    3d96:	600a           	bras 3da2 <SAVE+0x122>
    3d98:	286d 002e      	moveal %a5@(46),%a4
    3d9c:	426c 0004      	clrw %a4@(4)
    3da0:	7000           	moveq #0,%d0
    3da2:	4cee 3080 ffd0 	moveml %fp@(-48),%d7/%a4-%a5
    3da8:	4e5e           	unlk %fp
    3daa:	4e75           	rts
    3dac:	4e56 ffe0      	linkw %fp,#-32
    3db0:	48d7 3ce0      	moveml %d5-%d7/%a2-%a5,%sp@
    3db4:	2a6e 0008      	moveal %fp@(8),%a5
    3db8:	286e 000c      	moveal %fp@(12),%a4
    3dbc:	266e 0010      	moveal %fp@(16),%a3
    3dc0:	2d6b 002e fffc 	movel %a3@(46),%fp@(-4)
    3dc6:	7001           	moveq #1,%d0
    3dc8:	222b 000e      	movel %a3@(14),%d1
    3dcc:	e3a0           	asll %d1,%d0
    3dce:	206e fffc      	moveal %fp@(-4),%a0
    3dd2:	1080           	moveb %d0,%a0@
    3dd4:	2e3c 0001 86a0 	movel #100000,%d7
    3dda:	206e fffc      	moveal %fp@(-4),%a0
    3dde:	3028 0004      	movew %a0@(4),%d0
    3de2:	0800 0006      	btst #6,%d0
    3de6:	6652           	bnes 3e3a <SAVE+0x1ba>
    3de8:	317c 0020 0004 	movew #32,%a0@(4)
    3dee:	4878 0040      	pea 40 <CACR_CLEAR+0x38>
    3df2:	2f2e fffc      	movel %fp@(-4),%sp@-
    3df6:	4eb9 000a 3fa0 	jsr a3fa0 <_sc_wait>
    3dfc:	504f           	addqw #8,%sp
    3dfe:	4a80           	tstl %d0
    3e00:	6678           	bnes 3e7a <SAVE+0x1fa>
    3e02:	4879 000a 6d3c 	pea a6d3c <_seqerr_msg+0x32>
    3e08:	4eb9 000a 3d00 	jsr a3d00 <_sc_error>
    3e0e:	584f           	addqw #4,%sp
    3e10:	206e fffc      	moveal %fp@(-4),%a0
    3e14:	317c 0010 0004 	movew #16,%a0@(4)
    3e1a:	2a3c 0000 0320 	movel #800,%d5
    3e20:	2239 000a 5da6 	movel a5da6 <_cpudelay>,%d1
    3e26:	e2a5           	asrl %d1,%d5
    3e28:	5385           	subql #1,%d5
    3e2a:	6efc           	bgts 3e28 <SAVE+0x1a8>
    3e2c:	206e fffc      	moveal %fp@(-4),%a0
    3e30:	4268 0004      	clrw %a0@(4)
    3e34:	70ff           	moveq #-1,%d0
    3e36:	6000 015e      	braw 3f96 <SAVE+0x316>
    3e3a:	2007           	movel %d7,%d0
    3e3c:	5387           	subql #1,%d7
    3e3e:	4a80           	tstl %d0
    3e40:	6e98           	bgts 3dda <SAVE+0x15a>
    3e42:	4879 000a 6d26 	pea a6d26 <_seqerr_msg+0x1c>
    3e48:	4eb9 000a 3d00 	jsr a3d00 <_sc_error>
    3e4e:	584f           	addqw #4,%sp
    3e50:	206e fffc      	moveal %fp@(-4),%a0
    3e54:	317c 0010 0004 	movew #16,%a0@(4)
    3e5a:	2a3c 0000 0320 	movel #800,%d5
    3e60:	2239 000a 5da6 	movel a5da6 <_cpudelay>,%d1
    3e66:	e2a5           	asrl %d1,%d5
    3e68:	5385           	subql #1,%d5
    3e6a:	6efc           	bgts 3e68 <SAVE+0x1e8>
    3e6c:	206e fffc      	moveal %fp@(-4),%a0
    3e70:	4268 0004      	clrw %a0@(4)
    3e74:	70ff           	moveq #-1,%d0
    3e76:	6000 011e      	braw 3f96 <SAVE+0x316>
    3e7a:	206e fffc      	moveal %fp@(-4),%a0
    3e7e:	317c 0006 0004 	movew #6,%a0@(4)
    3e84:	206e fffc      	moveal %fp@(-4),%a0
    3e88:	202b 0022      	movel %a3@(34),%d0
    3e8c:	0280 000f ffff 	andil #1048575,%d0
    3e92:	2140 0008      	movel %d0,%a0@(8)
    3e96:	206e fffc      	moveal %fp@(-4),%a0
    3e9a:	302b 0028      	movew %a3@(40),%d0
    3e9e:	4640           	notw %d0
    3ea0:	3140 000c      	movew %d0,%a0@(12)
    3ea4:	244d           	moveal %a5,%a2
    3ea6:	7e00           	moveq #0,%d7
    3ea8:	101a           	moveb %a2@+,%d0
    3eaa:	4880           	extw %d0
    3eac:	48c0           	extl %d0
    3eae:	2f00           	movel %d0,%sp@-
    3eb0:	4878 0200      	pea 200 <RST+0xc4>
    3eb4:	2f2e fffc      	movel %fp@(-4),%sp@-
    3eb8:	4eb9 000a 4024 	jsr a4024 <_sc_putbyte>
    3ebe:	4fef 000c      	lea %sp@(12),%sp
    3ec2:	4a80           	tstl %d0
    3ec4:	6700 00b4      	beqw 3f7a <SAVE+0x2fa>
    3ec8:	5287           	addql #1,%d7
    3eca:	7c06           	moveq #6,%d6
    3ecc:	be86           	cmpl %d6,%d7
    3ece:	6dd8           	blts 3ea8 <SAVE+0x228>
    3ed0:	4878 1000      	pea 1000 <RST+0xec4>
    3ed4:	2f2e fffc      	movel %fp@(-4),%sp@-
    3ed8:	4eb9 000a 3fa0 	jsr a3fa0 <_sc_wait>
    3ede:	504f           	addqw #8,%sp
    3ee0:	4a80           	tstl %d0
    3ee2:	6700 0096      	beqw 3f7a <SAVE+0x2fa>
    3ee6:	206e fffc      	moveal %fp@(-4),%a0
    3eea:	3028 0004      	movew %a0@(4),%d0
    3eee:	0800 000d      	btst #13,%d0
    3ef2:	6736           	beqs 3f2a <SAVE+0x2aa>
    3ef4:	0c15 0003      	cmpib #3,%a5@
    3ef8:	6706           	beqs 3f00 <SAVE+0x280>
    3efa:	0c15 0008      	cmpib #8,%a5@
    3efe:	6618           	bnes 3f18 <SAVE+0x298>
    3f00:	246b 0022      	moveal %a3@(34),%a2
    3f04:	d5eb 0026      	addal %a3@(38),%a2
    3f08:	206e fffc      	moveal %fp@(-4),%a0
    3f0c:	1510           	moveb %a0@,%a2@-
    3f0e:	3028 000c      	movew %a0@(12),%d0
    3f12:	4640           	notw %d0
    3f14:	5340           	subqw #1,%d0
    3f16:	600c           	bras 3f24 <SAVE+0x2a4>
    3f18:	206e fffc      	moveal %fp@(-4),%a0
    3f1c:	3028 000c      	movew %a0@(12),%d0
    3f20:	4640           	notw %d0
    3f22:	5240           	addqw #1,%d0
    3f24:	4640           	notw %d0
    3f26:	3140 000c      	movew %d0,%a0@(12)
    3f2a:	244c           	moveal %a4,%a2
    3f2c:	7e00           	moveq #0,%d7
    3f2e:	600c           	bras 3f3c <SAVE+0x2bc>
    3f30:	7a03           	moveq #3,%d5
    3f32:	be85           	cmpl %d5,%d7
    3f34:	6c06           	bges 3f3c <SAVE+0x2bc>
    3f36:	1586 7800      	moveb %d6,%a2@(00000000,%d7:l)
    3f3a:	5287           	addql #1,%d7
    3f3c:	4878 0300      	pea 300 <RST+0x1c4>
    3f40:	2f2e fffc      	movel %fp@(-4),%sp@-
    3f44:	4eb9 000a 4074 	jsr a4074 <_sc_getbyte>
    3f4a:	504f           	addqw #8,%sp
    3f4c:	2c00           	movel %d0,%d6
    3f4e:	7aff           	moveq #-1,%d5
    3f50:	bc85           	cmpl %d5,%d6
    3f52:	66dc           	bnes 3f30 <SAVE+0x2b0>
    3f54:	4878 0700      	pea 700 <RST+0x5c4>
    3f58:	2f2e fffc      	movel %fp@(-4),%sp@-
    3f5c:	4eb9 000a 4074 	jsr a4074 <_sc_getbyte>
    3f62:	504f           	addqw #8,%sp
    3f64:	2c00           	movel %d0,%d6
    3f66:	6716           	beqs 3f7e <SAVE+0x2fe>
    3f68:	4a86           	tstl %d6
    3f6a:	6d0e           	blts 3f7a <SAVE+0x2fa>
    3f6c:	4879 000a 6d5b 	pea a6d5b <_seqerr_msg+0x51>
    3f72:	4eb9 000a 3d00 	jsr a3d00 <_sc_error>
    3f78:	584f           	addqw #4,%sp
    3f7a:	70ff           	moveq #-1,%d0
    3f7c:	6018           	bras 3f96 <SAVE+0x316>
    3f7e:	206e fffc      	moveal %fp@(-4),%a0
    3f82:	3028 000c      	movew %a0@(12),%d0
    3f86:	4640           	notw %d0
    3f88:	0280 0000 ffff 	andil #65535,%d0
    3f8e:	222b 0026      	movel %a3@(38),%d1
    3f92:	9280           	subl %d0,%d1
    3f94:	2001           	movel %d1,%d0
    3f96:	4cee 3ce0 ffe0 	moveml %fp@(-32),%d5-%d7/%a2-%a5
    3f9c:	4e5e           	unlk %fp
    3f9e:	4e75           	rts
    3fa0:	4e56 fff0      	linkw %fp,#-16
    3fa4:	48d7 20e0      	moveml %d5-%d7/%a5,%sp@
    3fa8:	2a6e 0008      	moveal %fp@(8),%a5
    3fac:	0cae 0000 1000 	cmpil #4096,%fp@(12)
    3fb2:	000c 
    3fb4:	6608           	bnes 3fbe <SAVE+0x33e>
    3fb6:	2c3c 000f 4240 	movel #1000000,%d6
    3fbc:	6048           	bras 4006 <SAVE+0x386>
    3fbe:	2c3c 0000 2710 	movel #10000,%d6
    3fc4:	6040           	bras 4006 <SAVE+0x386>
    3fc6:	5386           	subql #1,%d6
    3fc8:	6e12           	bgts 3fdc <SAVE+0x35c>
    3fca:	4879 000a 6d6b 	pea a6d6b <_seqerr_msg+0x61>
    3fd0:	4eb9 000a 3d00 	jsr a3d00 <_sc_error>
    3fd6:	584f           	addqw #4,%sp
    3fd8:	7000           	moveq #0,%d0
    3fda:	603e           	bras 401a <SAVE+0x39a>
    3fdc:	0807 000e      	btst #14,%d7
    3fe0:	6712           	beqs 3ff4 <SAVE+0x374>
    3fe2:	4879 000a 6d73 	pea a6d73 <_seqerr_msg+0x69>
    3fe8:	4eb9 000a 3d00 	jsr a3d00 <_sc_error>
    3fee:	584f           	addqw #4,%sp
    3ff0:	7000           	moveq #0,%d0
    3ff2:	6026           	bras 401a <SAVE+0x39a>
    3ff4:	2a3c 0001 3880 	movel #80000,%d5
    3ffa:	2239 000a 5da6 	movel a5da6 <_cpudelay>,%d1
    4000:	e2a5           	asrl %d1,%d5
    4002:	5385           	subql #1,%d5
    4004:	6efc           	bgts 4002 <SAVE+0x382>
    4006:	7000           	moveq #0,%d0
    4008:	302d 0004      	movew %a5@(4),%d0
    400c:	3e00           	movew %d0,%d7
    400e:	c0ae 000c      	andl %fp@(12),%d0
    4012:	b0ae 000c      	cmpl %fp@(12),%d0
    4016:	66ae           	bnes 3fc6 <SAVE+0x346>
    4018:	7001           	moveq #1,%d0
    401a:	4cee 20e0 fff0 	moveml %fp@(-16),%d5-%d7/%a5
    4020:	4e5e           	unlk %fp
    4022:	4e75           	rts
    4024:	4e56 fffc      	linkw %fp,#-4
    4028:	2e8d           	movel %a5,%sp@
    402a:	2a6e 0008      	moveal %fp@(8),%a5
    402e:	4878 0800      	pea 800 <RST+0x6c4>
    4032:	4855           	pea %a5@
    4034:	6100 ff6a      	bsrw 3fa0 <SAVE+0x320>
    4038:	504f           	addqw #8,%sp
    403a:	4a80           	tstl %d0
    403c:	6604           	bnes 4042 <SAVE+0x3c2>
    403e:	7000           	moveq #0,%d0
    4040:	602a           	bras 406c <SAVE+0x3ec>
    4042:	302d 0004      	movew %a5@(4),%d0
    4046:	0280 0000 0700 	andil #1792,%d0
    404c:	b0ae 000c      	cmpl %fp@(12),%d0
    4050:	6712           	beqs 4064 <SAVE+0x3e4>
    4052:	4879 000a 6d0a 	pea a6d0a <_seqerr_msg>
    4058:	4eb9 000a 3d00 	jsr a3d00 <_sc_error>
    405e:	584f           	addqw #4,%sp
    4060:	7000           	moveq #0,%d0
    4062:	6008           	bras 406c <SAVE+0x3ec>
    4064:	1b6e 0013 0002 	moveb %fp@(19),%a5@(2)
    406a:	7001           	moveq #1,%d0
    406c:	2a6e fffc      	moveal %fp@(-4),%a5
    4070:	4e5e           	unlk %fp
    4072:	4e75           	rts
    4074:	4e56 fffc      	linkw %fp,#-4
    4078:	2e8d           	movel %a5,%sp@
    407a:	2a6e 0008      	moveal %fp@(8),%a5
    407e:	4878 0800      	pea 800 <RST+0x6c4>
    4082:	4855           	pea %a5@
    4084:	6100 ff1a      	bsrw 3fa0 <SAVE+0x320>
    4088:	504f           	addqw #8,%sp
    408a:	4a80           	tstl %d0
    408c:	6728           	beqs 40b6 <SAVE+0x436>
    408e:	302d 0004      	movew %a5@(4),%d0
    4092:	0280 0000 0700 	andil #1792,%d0
    4098:	b0ae 000c      	cmpl %fp@(12),%d0
    409c:	671c           	beqs 40ba <SAVE+0x43a>
    409e:	0cae 0000 0300 	cmpil #768,%fp@(12)
    40a4:	000c 
    40a6:	670e           	beqs 40b6 <SAVE+0x436>
    40a8:	4879 000a 6d0a 	pea a6d0a <_seqerr_msg>
    40ae:	4eb9 000a 3d00 	jsr a3d00 <_sc_error>
    40b4:	584f           	addqw #4,%sp
    40b6:	70ff           	moveq #-1,%d0
    40b8:	6006           	bras 40c0 <SAVE+0x440>
    40ba:	7000           	moveq #0,%d0
    40bc:	102d 0002      	moveb %a5@(2),%d0
    40c0:	2a6e fffc      	moveal %fp@(-4),%a5
    40c4:	4e5e           	unlk %fp
    40c6:	4e75           	rts
    40c8:	4e56 fff4      	linkw %fp,#-12
    40cc:	48d7 3080      	moveml %d7/%a4-%a5,%sp@
    40d0:	2a6e 0008      	moveal %fp@(8),%a5
    40d4:	286d 002e      	moveal %a5@(46),%a4
    40d8:	42a7           	clrl %sp@-
    40da:	4854           	pea %a4@
    40dc:	4eb9 000a 570a 	jsr a570a <_pokec>
    40e2:	504f           	addqw #8,%sp
    40e4:	4a80           	tstl %d0
    40e6:	6704           	beqs 40ec <SAVE+0x46c>
    40e8:	70ff           	moveq #-1,%d0
    40ea:	6042           	bras 412e <SAVE+0x4ae>
    40ec:	1e2c 0004      	moveb %a4@(4),%d7
    40f0:	4878 0002      	pea 2 <CACR_ENABLE+0x1>
    40f4:	4878 0005      	pea 5 <SMAPOFF>
    40f8:	4855           	pea %a5@
    40fa:	4eb9 000a 418c 	jsr a418c <_xtcmd>
    4100:	4fef 000c      	lea %sp@(12),%sp
    4104:	2e2d 0012      	movel %a5@(18),%d7
    4108:	6018           	bras 4122 <SAVE+0x4a2>
    410a:	42ad 0026      	clrl %a5@(38)
    410e:	4878 0001      	pea 1 <CACR_ENABLE>
    4112:	4878 0005      	pea 5 <SMAPOFF>
    4116:	4855           	pea %a5@
    4118:	4eb9 000a 418c 	jsr a418c <_xtcmd>
    411e:	4fef 000c      	lea %sp@(12),%sp
    4122:	51cf ffe6      	dbf %d7,410a <SAVE+0x48a>
    4126:	4247           	clrw %d7
    4128:	5387           	subql #1,%d7
    412a:	64de           	bccs 410a <SAVE+0x48a>
    412c:	7000           	moveq #0,%d0
    412e:	4cee 3080 fff4 	moveml %fp@(-12),%d7/%a4-%a5
    4134:	4e5e           	unlk %fp
    4136:	4e75           	rts
    4138:	4e56 fffc      	linkw %fp,#-4
    413c:	2e8d           	movel %a5,%sp@
    413e:	2a6e 0008      	moveal %fp@(8),%a5
    4142:	4878 0002      	pea 2 <CACR_ENABLE+0x1>
    4146:	4878 0005      	pea 5 <SMAPOFF>
    414a:	4855           	pea %a5@
    414c:	4eb9 000a 418c 	jsr a418c <_xtcmd>
    4152:	4fef 000c      	lea %sp@(12),%sp
    4156:	2a6e fffc      	moveal %fp@(-4),%a5
    415a:	4e5e           	unlk %fp
    415c:	4e75           	rts
    415e:	4e56 fffc      	linkw %fp,#-4
    4162:	0cae 0000 0002 	cmpil #2,%fp@(12)
    4168:	000c 
    416a:	6604           	bnes 4170 <SAVE+0x4f0>
    416c:	7001           	moveq #1,%d0
    416e:	6002           	bras 4172 <SAVE+0x4f2>
    4170:	7002           	moveq #2,%d0
    4172:	2d40 fffc      	movel %d0,%fp@(-4)
    4176:	42a7           	clrl %sp@-
    4178:	2f00           	movel %d0,%sp@-
    417a:	2f2e 0008      	movel %fp@(8),%sp@-
    417e:	4eb9 000a 418c 	jsr a418c <_xtcmd>
    4184:	4fef 000c      	lea %sp@(12),%sp
    4188:	4e5e           	unlk %fp
    418a:	4e75           	rts
    418c:	4e56 ffe4      	linkw %fp,#-28
    4190:	48d7 3880      	moveml %d7/%a3-%a5,%sp@
    4194:	2a6e 0008      	moveal %fp@(8),%a5
    4198:	286d 0032      	moveal %a5@(50),%a4
    419c:	266d 002e      	moveal %a5@(46),%a3
    41a0:	202d 0032      	movel %a5@(50),%d0
    41a4:	7e12           	moveq #18,%d7
    41a6:	d087           	addl %d7,%d0
    41a8:	2d40 fffc      	movel %d0,%fp@(-4)
    41ac:	4878 0012      	pea 12 <CACR_CLEAR+0xa>
    41b0:	4854           	pea %a4@
    41b2:	4eb9 000a 4f44 	jsr a4f44 <_bzero>
    41b8:	504f           	addqw #8,%sp
    41ba:	08ec 0006 0001 	bset #6,%a4@(1)
    41c0:	08ec 0007 0001 	bset #7,%a4@(1)
    41c6:	102e 000f      	moveb %fp@(15),%d0
    41ca:	022c fff0 0001 	andib #-16,%a4@(1)
    41d0:	0200 000f      	andib #15,%d0
    41d4:	812c 0001      	orb %d0,%a4@(1)
    41d8:	102e 0013      	moveb %fp@(19),%d0
    41dc:	0214 ffc0      	andib #-64,%a4@
    41e0:	0200 003f      	andib #63,%d0
    41e4:	8114           	orb %d0,%a4@
    41e6:	202d 000e      	movel %a5@(14),%d0
    41ea:	7e03           	moveq #3,%d7
    41ec:	c087           	andl %d7,%d0
    41ee:	022c fff8 0006 	andib #-8,%a4@(6)
    41f4:	0200 0007      	andib #7,%d0
    41f8:	812c 0006      	orb %d0,%a4@(6)
    41fc:	022c fff8 0007 	andib #-8,%a4@(7)
    4202:	002c 0005 0007 	orib #5,%a4@(7)
    4208:	202e 000c      	movel %fp@(12),%d0
    420c:	7e01           	moveq #1,%d7
    420e:	b087           	cmpl %d7,%d0
    4210:	6716           	beqs 4228 <SAVE+0x5a8>
    4212:	7e02           	moveq #2,%d7
    4214:	b087           	cmpl %d7,%d0
    4216:	663a           	bnes 4252 <SAVE+0x5d2>
    4218:	396d 0028 0008 	movew %a5@(40),%a4@(8)
    421e:	08d4 0007      	bset #7,%a4@
    4222:	08d4 0006      	bset #6,%a4@
    4226:	6030           	bras 4258 <SAVE+0x5d8>
    4228:	396d 0028 0008 	movew %a5@(40),%a4@(8)
    422e:	7000           	moveq #0,%d0
    4230:	302c 0008      	movew %a4@(8),%d0
    4234:	2f00           	movel %d0,%sp@-
    4236:	2f2e fffc      	movel %fp@(-4),%sp@-
    423a:	2f2d 0022      	movel %a5@(34),%sp@-
    423e:	4eb9 000a 4f6a 	jsr a4f6a <_bcopy>
    4244:	4fef 000c      	lea %sp@(12),%sp
    4248:	08d4 0007      	bset #7,%a4@
    424c:	08d4 0006      	bset #6,%a4@
    4250:	6006           	bras 4258 <SAVE+0x5d8>
    4252:	397c 0001 0008 	movew #1,%a4@(8)
    4258:	396e fffe 000a 	movew %fp@(-2),%a4@(10)
    425e:	082b 0003 0005 	btst #3,%a3@(5)
    4264:	6710           	beqs 4276 <SAVE+0x5f6>
    4266:	202e fffc      	movel %fp@(-4),%d0
    426a:	0280 00ff 0000 	andil #16711680,%d0
    4270:	7210           	moveq #16,%d1
    4272:	e2a0           	asrl %d1,%d0
    4274:	600c           	bras 4282 <SAVE+0x602>
    4276:	202e fffc      	movel %fp@(-4),%d0
    427a:	0280 000f 0000 	andil #983040,%d0
    4280:	e880           	asrl #4,%d0
    4282:	3940 000c      	movew %d0,%a4@(12)
    4286:	082b 0003 0005 	btst #3,%a3@(5)
    428c:	670e           	beqs 429c <SAVE+0x61c>
    428e:	200c           	movel %a4,%d0
    4290:	0280 00ff 0000 	andil #16711680,%d0
    4296:	7210           	moveq #16,%d1
    4298:	e2a0           	asrl %d1,%d0
    429a:	600a           	bras 42a6 <SAVE+0x626>
    429c:	200c           	movel %a4,%d0
    429e:	0280 000f 0000 	andil #983040,%d0
    42a4:	e880           	asrl #4,%d0
    42a6:	2d40 fff4      	movel %d0,%fp@(-12)
    42aa:	e080           	asrl #8,%d0
    42ac:	1680           	moveb %d0,%a3@
    42ae:	176e fff7 0001 	moveb %fp@(-9),%a3@(1)
    42b4:	200c           	movel %a4,%d0
    42b6:	e080           	asrl #8,%d0
    42b8:	1740 0002      	moveb %d0,%a3@(2)
    42bc:	200c           	movel %a4,%d0
    42be:	1740 0003      	moveb %d0,%a3@(3)
    42c2:	177c 0080 0005 	moveb #-128,%a3@(5)
    42c8:	2e3c 0000 01e0 	movel #480,%d7
    42ce:	2239 000a 5da6 	movel a5da6 <_cpudelay>,%d1
    42d4:	e2a7           	asrl %d1,%d7
    42d6:	5387           	subql #1,%d7
    42d8:	6efc           	bgts 42d6 <SAVE+0x656>
    42da:	082b 0007 0005 	btst #7,%a3@(5)
    42e0:	66e6           	bnes 42c8 <SAVE+0x648>
    42e2:	7000           	moveq #0,%d0
    42e4:	102c 0002      	moveb %a4@(2),%d0
    42e8:	2d40 fff8      	movel %d0,%fp@(-8)
    42ec:	6744           	beqs 4332 <SAVE+0x6b2>
    42ee:	0cae 0000 0022 	cmpil #34,%fp@(-8)
    42f4:	fff8 
    42f6:	673a           	beqs 4332 <SAVE+0x6b2>
    42f8:	0cae 0000 0023 	cmpil #35,%fp@(-8)
    42fe:	fff8 
    4300:	6730           	beqs 4332 <SAVE+0x6b2>
    4302:	0cae 0000 001e 	cmpil #30,%fp@(-8)
    4308:	fff8 
    430a:	670a           	beqs 4316 <SAVE+0x696>
    430c:	0cae 0000 0031 	cmpil #49,%fp@(-8)
    4312:	fff8 
    4314:	6604           	bnes 431a <SAVE+0x69a>
    4316:	7000           	moveq #0,%d0
    4318:	6042           	bras 435c <SAVE+0x6dc>
    431a:	2f2e fff8      	movel %fp@(-8),%sp@-
    431e:	4879 000a 6df4 	pea a6df4 <_xtdriver+0x20>
    4324:	2079 0fef 0084 	moveal fef0084 <_end+0xfe34a70>,%a0
    432a:	4e90           	jsr %a0@
    432c:	504f           	addqw #8,%sp
    432e:	70ff           	moveq #-1,%d0
    4330:	602a           	bras 435c <SAVE+0x6dc>
    4332:	0cae 0000 0002 	cmpil #2,%fp@(12)
    4338:	000c 
    433a:	661a           	bnes 4356 <SAVE+0x6d6>
    433c:	7000           	moveq #0,%d0
    433e:	302c 0010      	movew %a4@(16),%d0
    4342:	2f00           	movel %d0,%sp@-
    4344:	2f2d 0022      	movel %a5@(34),%sp@-
    4348:	2f2e fffc      	movel %fp@(-4),%sp@-
    434c:	4eb9 000a 4f6a 	jsr a4f6a <_bcopy>
    4352:	4fef 000c      	lea %sp@(12),%sp
    4356:	7000           	moveq #0,%d0
    4358:	302c 0010      	movew %a4@(16),%d0
    435c:	4cee 3880 ffe4 	moveml %fp@(-28),%d7/%a3-%a5
    4362:	4e5e           	unlk %fp
    4364:	4e75           	rts
    4366:	0000 4e56      	orib #86,%d0
    436a:	fffc           	.short 0xfffc
    436c:	2e87           	movel %d7,%sp@
    436e:	206e 0008      	moveal %fp@(8),%a0
    4372:	217c 000a 6e52 	movel #683602,%a0@(42)
    4378:	002a 
    437a:	2f2e 0008      	movel %fp@(8),%sp@-
    437e:	4eb9 000a 43b4 	jsr a43b4 <_ieinit>
    4384:	584f           	addqw #4,%sp
    4386:	4a80           	tstl %d0
    4388:	6610           	bnes 439a <SAVE+0x71a>
    438a:	2f2e 0008      	movel %fp@(8),%sp@-
    438e:	4eb9 000a 5884 	jsr a5884 <_etheropen>
    4394:	584f           	addqw #4,%sp
    4396:	2e00           	movel %d0,%d7
    4398:	6c10           	bges 43aa <SAVE+0x72a>
    439a:	2f2e 0008      	movel %fp@(8),%sp@-
    439e:	4eb9 000a 4ca0 	jsr a4ca0 <_ieclose>
    43a4:	584f           	addqw #4,%sp
    43a6:	70ff           	moveq #-1,%d0
    43a8:	6002           	bras 43ac <SAVE+0x72c>
    43aa:	2007           	movel %d7,%d0
    43ac:	2e2e fffc      	movel %fp@(-4),%d7
    43b0:	4e5e           	unlk %fp
    43b2:	4e75           	rts
    43b4:	4e56 ffc8      	linkw %fp,#-56
    43b8:	48d7 3000      	moveml %a4-%a5,%sp@
    43bc:	486e ffd8      	pea %fp@(-40)
    43c0:	4878 0001      	pea 1 <CACR_ENABLE>
    43c4:	4eb9 000a 4ed4 	jsr a4ed4 <_idprom>
    43ca:	504f           	addqw #8,%sp
    43cc:	7201           	moveq #1,%d1
    43ce:	b081           	cmpl %d1,%d0
    43d0:	665a           	bnes 442c <SAVE+0x7ac>
    43d2:	0c2e 0001 ffd9 	cmpib #1,%fp@(-39)
    43d8:	6752           	beqs 442c <SAVE+0x7ac>
    43da:	206e 0008      	moveal %fp@(8),%a0
    43de:	4aa8 000a      	tstl %a0@(10)
    43e2:	670c           	beqs 43f0 <SAVE+0x770>
    43e4:	2028 000a      	movel %a0@(10),%d0
    43e8:	b0b9 000a 6e4a 	cmpl a6e4a <_iestd>,%d0
    43ee:	663c           	bnes 442c <SAVE+0x7ac>
    43f0:	206e 0008      	moveal %fp@(8),%a0
    43f4:	2a68 0032      	moveal %a0@(50),%a5
    43f8:	4878 2d0c      	pea 2d0c <HIGH+0x60c>
    43fc:	4855           	pea %a5@
    43fe:	4eb9 000a 4f44 	jsr a4f44 <_bzero>
    4404:	504f           	addqw #8,%sp
    4406:	3b7c 0002 2062 	movew #2,%a5@(8290)
    440c:	4878 0002      	pea 2 <CACR_ENABLE+0x1>
    4410:	4879 007f 0800 	pea 7f0800 <_end+0x7351ec>
    4416:	4878 0001      	pea 1 <CACR_ENABLE>
    441a:	4eb9 000a 148e 	jsr a148e <_devalloc>
    4420:	4fef 000c      	lea %sp@(12),%sp
    4424:	2b40 205e      	movel %d0,%a5@(8286)
    4428:	6000 00e4      	braw 450e <SAVE+0x88e>
    442c:	206e 0008      	moveal %fp@(8),%a0
    4430:	2868 002e      	moveal %a0@(46),%a4
    4434:	08ec 0000 0844 	bset #0,%a4@(2116)
    443a:	08ac 0006 0840 	bclr #6,%a4@(2112)
    4440:	08ac 0004 0840 	bclr #4,%a4@(2112)
    4446:	08ac 0003 0840 	bclr #3,%a4@(2112)
    444c:	7000           	moveq #0,%d0
    444e:	102c 0841      	moveb %a4@(2113),%d0
    4452:	0200 000f      	andib #15,%d0
    4456:	7210           	moveq #16,%d1
    4458:	e3a8           	lsll %d1,%d0
    445a:	2d40 fffc      	movel %d0,%fp@(-4)
    445e:	2d4c ffd0      	movel %a4,%fp@(-48)
    4462:	42ae fff8      	clrl %fp@(-8)
    4466:	206e ffd0      	moveal %fp@(-48),%a0
    446a:	4250           	clrw %a0@
    446c:	54ae ffd0      	addql #2,%fp@(-48)
    4470:	52ae fff8      	addql #1,%fp@(-8)
    4474:	0cae 0000 0400 	cmpil #1024,%fp@(-8)
    447a:	fff8 
    447c:	6de8           	blts 4466 <SAVE+0x7e6>
    447e:	42ae fff8      	clrl %fp@(-8)
    4482:	302e fffa      	movew %fp@(-6),%d0
    4486:	0254 f000      	andiw #-4096,%a4@
    448a:	0240 0fff      	andiw #4095,%d0
    448e:	8154           	orw %d0,%a4@
    4490:	52ae fff8      	addql #1,%fp@(-8)
    4494:	0cae 0000 0010 	cmpil #16,%fp@(-8)
    449a:	fff8 
    449c:	6de4           	blts 4482 <SAVE+0x802>
    449e:	2d4c ffd4      	movel %a4,%fp@(-44)
    44a2:	42ae fff8      	clrl %fp@(-8)
    44a6:	206e ffd4      	moveal %fp@(-44),%a0
    44aa:	08d0 0007      	bset #7,%a0@
    44ae:	206e ffd4      	moveal %fp@(-44),%a0
    44b2:	302e fffa      	movew %fp@(-6),%d0
    44b6:	0250 f000      	andiw #-4096,%a0@
    44ba:	0240 0fff      	andiw #4095,%d0
    44be:	8150           	orw %d0,%a0@
    44c0:	54ae ffd4      	addql #2,%fp@(-44)
    44c4:	52ae fff8      	addql #1,%fp@(-8)
    44c8:	0cae 0000 0010 	cmpil #16,%fp@(-8)
    44ce:	fff8 
    44d0:	6dd4           	blts 44a6 <SAVE+0x826>
    44d2:	026c f000 07fe 	andiw #-4096,%a4@(2046)
    44d8:	006c 0007 07fe 	oriw #7,%a4@(2046)
    44de:	4878 2d0c      	pea 2d0c <HIGH+0x60c>
    44e2:	2f2e fffc      	movel %fp@(-4),%sp@-
    44e6:	4878 0002      	pea 2 <CACR_ENABLE+0x1>
    44ea:	4eb9 000a 148e 	jsr a148e <_devalloc>
    44f0:	4fef 000c      	lea %sp@(12),%sp
    44f4:	2a40           	moveal %d0,%a5
    44f6:	4878 2d0c      	pea 2d0c <HIGH+0x60c>
    44fa:	4855           	pea %a5@
    44fc:	4eb9 000a 4f44 	jsr a4f44 <_bzero>
    4502:	504f           	addqw #8,%sp
    4504:	3b7c 0001 2062 	movew #1,%a5@(8290)
    450a:	2b4c 205a      	movel %a4,%a5@(8282)
    450e:	206e 0008      	moveal %fp@(8),%a0
    4512:	214d 0006      	movel %a5,%a0@(6)
    4516:	2f2e 0008      	movel %fp@(8),%sp@-
    451a:	4855           	pea %a5@
    451c:	4eb9 000a 452e 	jsr a452e <_iereset>
    4522:	504f           	addqw #8,%sp
    4524:	4cee 3000 ffc8 	moveml %fp@(-56),%a4-%a5
    452a:	4e5e           	unlk %fp
    452c:	4e75           	rts
    452e:	4e56 ffd8      	linkw %fp,#-40
    4532:	48d7 3880      	moveml %d7/%a3-%a5,%sp@
    4536:	2a6e 0008      	moveal %fp@(8),%a5
    453a:	41ed 2000      	lea %a5@(8192),%a0
    453e:	2d48 fffc      	movel %a0,%fp@(-4)
    4542:	41ed 2008      	lea %a5@(8200),%a0
    4546:	2d48 fff8      	movel %a0,%fp@(-8)
    454a:	41ed 2064      	lea %a5@(8292),%a0
    454e:	2d48 fff4      	movel %a0,%fp@(-12)
    4552:	41ed 2070      	lea %a5@(8304),%a0
    4556:	2d48 fff0      	movel %a0,%fp@(-16)
    455a:	286d 205a      	moveal %a5@(8282),%a4
    455e:	266d 205e      	moveal %a5@(8286),%a3
    4562:	42ae ffec      	clrl %fp@(-20)
    4566:	4878 000a      	pea a <CACR_CLEAR+0x2>
    456a:	486d 1ff6      	pea %a5@(8182)
    456e:	4eb9 000a 4f44 	jsr a4f44 <_bzero>
    4574:	504f           	addqw #8,%sp
    4576:	2f2e fffc      	movel %fp@(-4),%sp@-
    457a:	4855           	pea %a5@
    457c:	4eb9 000a 4bb2 	jsr a4bb2 <_to_ieaddr>
    4582:	504f           	addqw #8,%sp
    4584:	2b40 1ffc      	movel %d0,%a5@(8188)
    4588:	4878 0008      	pea 8 <CACR_CLEAR>
    458c:	2f2e fffc      	movel %fp@(-4),%sp@-
    4590:	4eb9 000a 4f44 	jsr a4f44 <_bzero>
    4596:	504f           	addqw #8,%sp
    4598:	206e fffc      	moveal %fp@(-4),%a0
    459c:	10bc 0001      	moveb #1,%a0@
    45a0:	2f2e fff8      	movel %fp@(-8),%sp@-
    45a4:	4855           	pea %a5@
    45a6:	4eb9 000a 4bf2 	jsr a4bf2 <_to_ieoff>
    45ac:	504f           	addqw #8,%sp
    45ae:	206e fffc      	moveal %fp@(-4),%a0
    45b2:	3140 0002      	movew %d0,%a0@(2)
    45b6:	4855           	pea %a5@
    45b8:	4855           	pea %a5@
    45ba:	4eb9 000a 4bb2 	jsr a4bb2 <_to_ieaddr>
    45c0:	504f           	addqw #8,%sp
    45c2:	206e fffc      	moveal %fp@(-4),%a0
    45c6:	2140 0004      	movel %d0,%a0@(4)
    45ca:	4878 0010      	pea 10 <CACR_CLEAR+0x8>
    45ce:	2f2e fff8      	movel %fp@(-8),%sp@-
    45d2:	4eb9 000a 4f44 	jsr a4f44 <_bzero>
    45d8:	504f           	addqw #8,%sp
    45da:	0c6d 0002 2062 	cmpiw #2,%a5@(8290)
    45e0:	6676           	bnes 4658 <SAVE+0x9d8>
    45e2:	41f9 000a 6e5e 	lea a6e5e <_obie_reset>,%a0
    45e8:	3690           	movew %a0@,%a3@
    45ea:	2e3c 0000 0140 	movel #320,%d7
    45f0:	2239 000a 5da6 	movel a5da6 <_cpudelay>,%d1
    45f6:	e2a7           	asrl %d1,%d7
    45f8:	5387           	subql #1,%d7
    45fa:	6efc           	bgts 45f8 <SAVE+0x978>
    45fc:	0893 0006      	bclr #6,%a3@
    4600:	2e3c 0000 0140 	movel #320,%d7
    4606:	2239 000a 5da6 	movel a5da6 <_cpudelay>,%d1
    460c:	e2a7           	asrl %d1,%d7
    460e:	5387           	subql #1,%d7
    4610:	6efc           	bgts 460e <SAVE+0x98e>
    4612:	08d3 0007      	bset #7,%a3@
    4616:	2e3c 0000 0c80 	movel #3200,%d7
    461c:	2239 000a 5da6 	movel a5da6 <_cpudelay>,%d1
    4622:	e2a7           	asrl %d1,%d7
    4624:	5387           	subql #1,%d7
    4626:	6efc           	bgts 4624 <SAVE+0x9a4>
    4628:	4879 00ff fff6 	pea fffff6 <_end+0xf449e2>
    462e:	4eb9 000a 1564 	jsr a1564 <_getpgmap>
    4634:	584f           	addqw #4,%sp
    4636:	2d40 ffe8      	movel %d0,%fp@(-24)
    463a:	486d 1ff6      	pea %a5@(8182)
    463e:	4eb9 000a 1564 	jsr a1564 <_getpgmap>
    4644:	584f           	addqw #4,%sp
    4646:	2f00           	movel %d0,%sp@-
    4648:	4879 00ff fff6 	pea fffff6 <_end+0xf449e2>
    464e:	4eb9 000a 1584 	jsr a1584 <_setpgmap>
    4654:	504f           	addqw #8,%sp
    4656:	6030           	bras 4688 <SAVE+0xa08>
    4658:	08ec 0007 0840 	bset #7,%a4@(2112)
    465e:	2e3c 0000 0140 	movel #320,%d7
    4664:	2239 000a 5da6 	movel a5da6 <_cpudelay>,%d1
    466a:	e2a7           	asrl %d1,%d7
    466c:	5387           	subql #1,%d7
    466e:	6efc           	bgts 466c <SAVE+0x9ec>
    4670:	08ac 0007 0840 	bclr #7,%a4@(2112)
    4676:	2e3c 0000 0c80 	movel #3200,%d7
    467c:	2239 000a 5da6 	movel a5da6 <_cpudelay>,%d1
    4682:	e2a7           	asrl %d1,%d7
    4684:	5387           	subql #1,%d7
    4686:	6efc           	bgts 4684 <SAVE+0xa04>
    4688:	4855           	pea %a5@
    468a:	4eb9 000a 491a 	jsr a491a <_ieca>
    4690:	584f           	addqw #4,%sp
    4692:	2e3c 0000 1f40 	movel #8000,%d7
    4698:	2239 000a 5da6 	movel a5da6 <_cpudelay>,%d1
    469e:	e2a7           	asrl %d1,%d7
    46a0:	5387           	subql #1,%d7
    46a2:	6f0a           	bles 46ae <SAVE+0xa2e>
    46a4:	206e fffc      	moveal %fp@(-4),%a0
    46a8:	0c10 0001      	cmpib #1,%a0@
    46ac:	67f2           	beqs 46a0 <SAVE+0xa20>
    46ae:	0c6d 0002 2062 	cmpiw #2,%a5@(8290)
    46b4:	6620           	bnes 46d6 <SAVE+0xa56>
    46b6:	206e fffc      	moveal %fp@(-4),%a0
    46ba:	0c10 0001      	cmpib #1,%a0@
    46be:	6604           	bnes 46c4 <SAVE+0xa44>
    46c0:	0893 0007      	bclr #7,%a3@
    46c4:	2f2e ffe8      	movel %fp@(-24),%sp@-
    46c8:	4879 00ff fff6 	pea fffff6 <_end+0xf449e2>
    46ce:	4eb9 000a 1584 	jsr a1584 <_setpgmap>
    46d4:	504f           	addqw #8,%sp
    46d6:	206e fffc      	moveal %fp@(-4),%a0
    46da:	0c10 0001      	cmpib #1,%a0@
    46de:	6700 00c4      	beqw 47a4 <SAVE+0xb24>
    46e2:	4878 000c      	pea c <CACR_CLEAR+0x4>
    46e6:	2f2e fff4      	movel %fp@(-12),%sp@-
    46ea:	4eb9 000a 4f44 	jsr a4f44 <_bzero>
    46f0:	504f           	addqw #8,%sp
    46f2:	206e fff4      	moveal %fp@(-12),%a0
    46f6:	0228 fff8 0002 	andib #-8,%a0@(2)
    46fc:	0028 0001 0002 	orib #1,%a0@(2)
    4702:	202e fff4      	movel %fp@(-12),%d0
    4706:	5c80           	addql #6,%d0
    4708:	2f00           	movel %d0,%sp@-
    470a:	4eb9 000a 4ff0 	jsr a4ff0 <_myetheraddr>
    4710:	584f           	addqw #4,%sp
    4712:	2f2e fff4      	movel %fp@(-12),%sp@-
    4716:	4855           	pea %a5@
    4718:	4eb9 000a 495a 	jsr a495a <_iesimple>
    471e:	504f           	addqw #8,%sp
    4720:	4a80           	tstl %d0
    4722:	6712           	beqs 4736 <SAVE+0xab6>
    4724:	4879 000a 6e9c 	pea a6e9c <_iedriver+0x20>
    472a:	2079 0fef 0084 	moveal fef0084 <_end+0xfe34a70>,%a0
    4730:	4e90           	jsr %a0@
    4732:	584f           	addqw #4,%sp
    4734:	606e           	bras 47a4 <SAVE+0xb24>
    4736:	2f2e fff0      	movel %fp@(-16),%sp@-
    473a:	4eb9 000a 4c20 	jsr a4c20 <_iedefaultconf>
    4740:	584f           	addqw #4,%sp
    4742:	2f2e fff0      	movel %fp@(-16),%sp@-
    4746:	4855           	pea %a5@
    4748:	4eb9 000a 495a 	jsr a495a <_iesimple>
    474e:	504f           	addqw #8,%sp
    4750:	4a80           	tstl %d0
    4752:	6712           	beqs 4766 <SAVE+0xae6>
    4754:	4879 000a 6ec6 	pea a6ec6 <_iedriver+0x4a>
    475a:	2079 0fef 0084 	moveal fef0084 <_end+0xfe34a70>,%a0
    4760:	4e90           	jsr %a0@
    4762:	584f           	addqw #4,%sp
    4764:	603e           	bras 47a4 <SAVE+0xb24>
    4766:	0c6d 0002 2062 	cmpiw #2,%a5@(8290)
    476c:	6604           	bnes 4772 <SAVE+0xaf2>
    476e:	08d3 0006      	bset #6,%a3@
    4772:	0c6d 0001 2062 	cmpiw #1,%a5@(8290)
    4778:	6606           	bnes 4780 <SAVE+0xb00>
    477a:	08ec 0006 0840 	bset #6,%a4@(2112)
    4780:	4855           	pea %a5@
    4782:	4eb9 000a 47d0 	jsr a47d0 <_ierustart>
    4788:	584f           	addqw #4,%sp
    478a:	4a80           	tstl %d0
    478c:	6712           	beqs 47a0 <SAVE+0xb20>
    478e:	4879 000a 6eeb 	pea a6eeb <_iedriver+0x6f>
    4794:	2079 0fef 0084 	moveal fef0084 <_end+0xfe34a70>,%a0
    479a:	4e90           	jsr %a0@
    479c:	584f           	addqw #4,%sp
    479e:	6004           	bras 47a4 <SAVE+0xb24>
    47a0:	7000           	moveq #0,%d0
    47a2:	6022           	bras 47c6 <SAVE+0xb46>
    47a4:	52ae ffec      	addql #1,%fp@(-20)
    47a8:	0cae 0000 000a 	cmpil #10,%fp@(-20)
    47ae:	ffec 
    47b0:	6d00 fdb4      	bltw 4566 <SAVE+0x8e6>
    47b4:	4879 000a 6f0e 	pea a6f0e <_iedriver+0x92>
    47ba:	2079 0fef 0084 	moveal fef0084 <_end+0xfe34a70>,%a0
    47c0:	4e90           	jsr %a0@
    47c2:	584f           	addqw #4,%sp
    47c4:	7001           	moveq #1,%d0
    47c6:	4cee 3880 ffd8 	moveml %fp@(-40),%d7/%a3-%a5
    47cc:	4e5e           	unlk %fp
    47ce:	4e75           	rts
    47d0:	4e56 ffe8      	linkw %fp,#-24
    47d4:	48d7 3c00      	moveml %a2-%a5,%sp@
    47d8:	2a6e 0008      	moveal %fp@(8),%a5
    47dc:	49ed 2018      	lea %a5@(8216),%a4
    47e0:	41ed 2022      	lea %a5@(8226),%a0
    47e4:	2d48 fffc      	movel %a0,%fp@(-4)
    47e8:	47ed 202c      	lea %a5@(8236),%a3
    47ec:	45ed 2008      	lea %a5@(8200),%a2
    47f0:	2d7c 000f 4240 	movel #1000000,%fp@(-8)
    47f6:	fff8 
    47f8:	6028           	bras 4822 <SAVE+0xba2>
    47fa:	4a6a 0002      	tstw %a2@(2)
    47fe:	6712           	beqs 4812 <SAVE+0xb92>
    4800:	202e fff8      	movel %fp@(-8),%d0
    4804:	53ae fff8      	subql #1,%fp@(-8)
    4808:	4a80           	tstl %d0
    480a:	6eee           	bgts 47fa <SAVE+0xb7a>
    480c:	70ff           	moveq #-1,%d0
    480e:	6000 00ee      	braw 48fe <SAVE+0xc7e>
    4812:	357c 4000 0002 	movew #16384,%a2@(2)
    4818:	4855           	pea %a5@
    481a:	4eb9 000a 491a 	jsr a491a <_ieca>
    4820:	584f           	addqw #4,%sp
    4822:	1012           	moveb %a2@,%d0
    4824:	0200 0070      	andib #112,%d0
    4828:	0c00 0040      	cmpib #64,%d0
    482c:	67cc           	beqs 47fa <SAVE+0xb7a>
    482e:	4a6a 0002      	tstw %a2@(2)
    4832:	6600 00d4      	bnew 4908 <SAVE+0xc88>
    4836:	4254           	clrw %a4@
    4838:	2f2e fffc      	movel %fp@(-4),%sp@-
    483c:	4855           	pea %a5@
    483e:	4eb9 000a 4bf2 	jsr a4bf2 <_to_ieoff>
    4844:	504f           	addqw #8,%sp
    4846:	3940 0002      	movew %d0,%a4@(2)
    484a:	08ac 0007 0009 	bclr #7,%a4@(9)
    4850:	486d 2082      	pea %a5@(8322)
    4854:	4855           	pea %a5@
    4856:	4eb9 000a 4bb2 	jsr a4bb2 <_to_ieaddr>
    485c:	504f           	addqw #8,%sp
    485e:	2940 0004      	movel %d0,%a4@(4)
    4862:	022c ffc0 0009 	andib #-64,%a4@(9)
    4868:	002c 0006 0009 	orib #6,%a4@(9)
    486e:	197c 0040 0008 	moveb #64,%a4@(8)
    4874:	206e fffc      	moveal %fp@(-4),%a0
    4878:	4250           	clrw %a0@
    487a:	206e fffc      	moveal %fp@(-4),%a0
    487e:	317c ffff 0002 	movew #-1,%a0@(2)
    4884:	206e fffc      	moveal %fp@(-4),%a0
    4888:	08e8 0007 0009 	bset #7,%a0@(9)
    488e:	486d 2d02      	pea %a5@(11522)
    4892:	4855           	pea %a5@
    4894:	4eb9 000a 4bb2 	jsr a4bb2 <_to_ieaddr>
    489a:	504f           	addqw #8,%sp
    489c:	206e fffc      	moveal %fp@(-4),%a0
    48a0:	2140 0004      	movel %d0,%a0@(4)
    48a4:	206e fffc      	moveal %fp@(-4),%a0
    48a8:	0228 ffc0 0009 	andib #-64,%a0@(9)
    48ae:	206e fffc      	moveal %fp@(-4),%a0
    48b2:	117c 000a 0008 	moveb #10,%a0@(8)
    48b8:	4253           	clrw %a3@
    48ba:	377c ffff 0004 	movew #-1,%a3@(4)
    48c0:	08eb 0007 0003 	bset #7,%a3@(3)
    48c6:	08eb 0006 0003 	bset #6,%a3@(3)
    48cc:	4854           	pea %a4@
    48ce:	4855           	pea %a5@
    48d0:	4eb9 000a 4bf2 	jsr a4bf2 <_to_ieoff>
    48d6:	504f           	addqw #8,%sp
    48d8:	3740 0006      	movew %d0,%a3@(6)
    48dc:	4853           	pea %a3@
    48de:	4855           	pea %a5@
    48e0:	4eb9 000a 4bf2 	jsr a4bf2 <_to_ieoff>
    48e6:	504f           	addqw #8,%sp
    48e8:	3540 0006      	movew %d0,%a2@(6)
    48ec:	357c 1000 0002 	movew #4096,%a2@(2)
    48f2:	4855           	pea %a5@
    48f4:	4eb9 000a 491a 	jsr a491a <_ieca>
    48fa:	584f           	addqw #4,%sp
    48fc:	7000           	moveq #0,%d0
    48fe:	4cee 3c00 ffe8 	moveml %fp@(-24),%a2-%a5
    4904:	4e5e           	unlk %fp
    4906:	4e75           	rts
    4908:	202e fff8      	movel %fp@(-8),%d0
    490c:	53ae fff8      	subql #1,%fp@(-8)
    4910:	4a80           	tstl %d0
    4912:	6e00 ff1a      	bgtw 482e <SAVE+0xbae>
    4916:	70ff           	moveq #-1,%d0
    4918:	60e4           	bras 48fe <SAVE+0xc7e>
    491a:	4e56 fffc      	linkw %fp,#-4
    491e:	2e8d           	movel %a5,%sp@
    4920:	2a6e 0008      	moveal %fp@(8),%a5
    4924:	0c6d 0002 2062 	cmpiw #2,%a5@(8290)
    492a:	6612           	bnes 493e <SAVE+0xcbe>
    492c:	206d 205e      	moveal %a5@(8286),%a0
    4930:	08d0 0005      	bset #5,%a0@
    4934:	206d 205e      	moveal %a5@(8286),%a0
    4938:	0890 0005      	bclr #5,%a0@
    493c:	6014           	bras 4952 <SAVE+0xcd2>
    493e:	206d 205a      	moveal %a5@(8282),%a0
    4942:	08e8 0005 0840 	bset #5,%a0@(2112)
    4948:	206d 205a      	moveal %a5@(8282),%a0
    494c:	08a8 0005 0840 	bclr #5,%a0@(2112)
    4952:	2a6e fffc      	moveal %fp@(-4),%a5
    4956:	4e5e           	unlk %fp
    4958:	4e75           	rts
    495a:	4e56 fff0      	linkw %fp,#-16
    495e:	48d7 3880      	moveml %d7/%a3-%a5,%sp@
    4962:	2a6e 0008      	moveal %fp@(8),%a5
    4966:	286e 000c      	moveal %fp@(12),%a4
    496a:	47ed 2008      	lea %a5@(8200),%a3
    496e:	2e3c 000f 4240 	movel #1000000,%d7
    4974:	4254           	clrw %a4@
    4976:	08ec 0007 0003 	bset #7,%a4@(3)
    497c:	426c 0004      	clrw %a4@(4)
    4980:	4a6b 0002      	tstw %a3@(2)
    4984:	6678           	bnes 49fe <SAVE+0xd7e>
    4986:	4854           	pea %a4@
    4988:	4855           	pea %a5@
    498a:	4eb9 000a 4bf2 	jsr a4bf2 <_to_ieoff>
    4990:	504f           	addqw #8,%sp
    4992:	3740 0004      	movew %d0,%a3@(4)
    4996:	377c 0001 0002 	movew #1,%a3@(2)
    499c:	082b 0007 0001 	btst #7,%a3@(1)
    49a2:	6706           	beqs 49aa <SAVE+0xd2a>
    49a4:	006b 0080 0002 	oriw #128,%a3@(2)
    49aa:	082b 0005 0001 	btst #5,%a3@(1)
    49b0:	6706           	beqs 49b8 <SAVE+0xd38>
    49b2:	006b 0020 0002 	oriw #32,%a3@(2)
    49b8:	4855           	pea %a5@
    49ba:	6100 ff5e      	bsrw 491a <SAVE+0xc9a>
    49be:	584f           	addqw #4,%sp
    49c0:	082c 0007 0001 	btst #7,%a4@(1)
    49c6:	6744           	beqs 4a0c <SAVE+0xd8c>
    49c8:	4a6b 0002      	tstw %a3@(2)
    49cc:	664a           	bnes 4a18 <SAVE+0xd98>
    49ce:	082b 0007 0001 	btst #7,%a3@(1)
    49d4:	6706           	beqs 49dc <SAVE+0xd5c>
    49d6:	006b 0080 0002 	oriw #128,%a3@(2)
    49dc:	082b 0005 0001 	btst #5,%a3@(1)
    49e2:	6706           	beqs 49ea <SAVE+0xd6a>
    49e4:	006b 0020 0002 	oriw #32,%a3@(2)
    49ea:	4855           	pea %a5@
    49ec:	6100 ff2c      	bsrw 491a <SAVE+0xc9a>
    49f0:	584f           	addqw #4,%sp
    49f2:	7000           	moveq #0,%d0
    49f4:	4cee 3880 fff0 	moveml %fp@(-16),%d7/%a3-%a5
    49fa:	4e5e           	unlk %fp
    49fc:	4e75           	rts
    49fe:	2007           	movel %d7,%d0
    4a00:	5387           	subql #1,%d7
    4a02:	4a80           	tstl %d0
    4a04:	6e00 ff7a      	bgtw 4980 <SAVE+0xd00>
    4a08:	70ff           	moveq #-1,%d0
    4a0a:	60e8           	bras 49f4 <SAVE+0xd74>
    4a0c:	2007           	movel %d7,%d0
    4a0e:	5387           	subql #1,%d7
    4a10:	4a80           	tstl %d0
    4a12:	6eac           	bgts 49c0 <SAVE+0xd40>
    4a14:	70ff           	moveq #-1,%d0
    4a16:	60dc           	bras 49f4 <SAVE+0xd74>
    4a18:	2007           	movel %d7,%d0
    4a1a:	5387           	subql #1,%d7
    4a1c:	4a80           	tstl %d0
    4a1e:	6ea8           	bgts 49c8 <SAVE+0xd48>
    4a20:	70ff           	moveq #-1,%d0
    4a22:	60d0           	bras 49f4 <SAVE+0xd74>
    4a24:	4e56 fff4      	linkw %fp,#-12
    4a28:	48d7 3800      	moveml %a3-%a5,%sp@
    4a2c:	2a6e 0008      	moveal %fp@(8),%a5
    4a30:	49ed 2052      	lea %a5@(8274),%a4
    4a34:	47ed 2042      	lea %a5@(8258),%a3
    4a38:	4878 0008      	pea 8 <CACR_CLEAR>
    4a3c:	4854           	pea %a4@
    4a3e:	4eb9 000a 4f44 	jsr a4f44 <_bzero>
    4a44:	504f           	addqw #8,%sp
    4a46:	08ec 0007 0001 	bset #7,%a4@(1)
    4a4c:	18ae 0013      	moveb %fp@(19),%a4@
    4a50:	202e 0010      	movel %fp@(16),%d0
    4a54:	e080           	asrl #8,%d0
    4a56:	022c ffc0 0001 	andib #-64,%a4@(1)
    4a5c:	0200 003f      	andib #63,%d0
    4a60:	812c 0001      	orb %d0,%a4@(1)
    4a64:	2f2e 0010      	movel %fp@(16),%sp@-
    4a68:	486d 26c2      	pea %a5@(9922)
    4a6c:	2f2e 000c      	movel %fp@(12),%sp@-
    4a70:	4eb9 000a 4f6a 	jsr a4f6a <_bcopy>
    4a76:	4fef 000c      	lea %sp@(12),%sp
    4a7a:	486d 26c2      	pea %a5@(9922)
    4a7e:	4855           	pea %a5@
    4a80:	4eb9 000a 4bb2 	jsr a4bb2 <_to_ieaddr>
    4a86:	504f           	addqw #8,%sp
    4a88:	2940 0004      	movel %d0,%a4@(4)
    4a8c:	4854           	pea %a4@
    4a8e:	4855           	pea %a5@
    4a90:	4eb9 000a 4bf2 	jsr a4bf2 <_to_ieoff>
    4a96:	504f           	addqw #8,%sp
    4a98:	3740 0006      	movew %d0,%a3@(6)
    4a9c:	022b fff8 0002 	andib #-8,%a3@(2)
    4aa2:	002b 0004 0002 	orib #4,%a3@(2)
    4aa8:	4853           	pea %a3@
    4aaa:	4855           	pea %a5@
    4aac:	6100 feac      	bsrw 495a <SAVE+0xcda>
    4ab0:	504f           	addqw #8,%sp
    4ab2:	4a80           	tstl %d0
    4ab4:	6708           	beqs 4abe <SAVE+0xe3e>
    4ab6:	4879 000a 6f25 	pea a6f25 <_iedriver+0xa9>
    4abc:	6018           	bras 4ad6 <SAVE+0xe56>
    4abe:	082b 0005 0001 	btst #5,%a3@(1)
    4ac4:	6704           	beqs 4aca <SAVE+0xe4a>
    4ac6:	7000           	moveq #0,%d0
    4ac8:	6018           	bras 4ae2 <SAVE+0xe62>
    4aca:	0813 0005      	btst #5,%a3@
    4ace:	6710           	beqs 4ae0 <SAVE+0xe60>
    4ad0:	4879 000a 6f34 	pea a6f34 <_iedriver+0xb8>
    4ad6:	2079 0fef 0084 	moveal fef0084 <_end+0xfe34a70>,%a0
    4adc:	4e90           	jsr %a0@
    4ade:	584f           	addqw #4,%sp
    4ae0:	70ff           	moveq #-1,%d0
    4ae2:	4cee 3800 fff4 	moveml %fp@(-12),%a3-%a5
    4ae8:	4e5e           	unlk %fp
    4aea:	4e75           	rts
    4aec:	4e56 ffe8      	linkw %fp,#-24
    4af0:	48d7 3c00      	moveml %a2-%a5,%sp@
    4af4:	2a6e 0008      	moveal %fp@(8),%a5
    4af8:	49ed 2018      	lea %a5@(8216),%a4
    4afc:	47ed 202c      	lea %a5@(8236),%a3
    4b00:	45ed 2008      	lea %a5@(8200),%a2
    4b04:	2d7c 000f 4240 	movel #1000000,%fp@(-8)
    4b0a:	fff8 
    4b0c:	1012           	moveb %a2@,%d0
    4b0e:	0200 0070      	andib #112,%d0
    4b12:	0c00 0040      	cmpib #64,%d0
    4b16:	6604           	bnes 4b1c <SAVE+0xe9c>
    4b18:	7000           	moveq #0,%d0
    4b1a:	607c           	bras 4b98 <SAVE+0xf18>
    4b1c:	082b 0007 0001 	btst #7,%a3@(1)
    4b22:	6708           	beqs 4b2c <SAVE+0xeac>
    4b24:	082c 0007 0001 	btst #7,%a4@(1)
    4b2a:	660c           	bnes 4b38 <SAVE+0xeb8>
    4b2c:	4855           	pea %a5@
    4b2e:	6100 fca0      	bsrw 47d0 <SAVE+0xb50>
    4b32:	584f           	addqw #4,%sp
    4b34:	7000           	moveq #0,%d0
    4b36:	6060           	bras 4b98 <SAVE+0xf18>
    4b38:	7000           	moveq #0,%d0
    4b3a:	102c 0001      	moveb %a4@(1),%d0
    4b3e:	0200 003f      	andib #63,%d0
    4b42:	e188           	lsll #8,%d0
    4b44:	7200           	moveq #0,%d1
    4b46:	1214           	moveb %a4@,%d1
    4b48:	d081           	addl %d1,%d0
    4b4a:	2d40 fffc      	movel %d0,%fp@(-4)
    4b4e:	2f00           	movel %d0,%sp@-
    4b50:	2f2e 000c      	movel %fp@(12),%sp@-
    4b54:	486d 2082      	pea %a5@(8322)
    4b58:	4eb9 000a 4f6a 	jsr a4f6a <_bcopy>
    4b5e:	4fef 000c      	lea %sp@(12),%sp
    4b62:	4a6a 0002      	tstw %a2@(2)
    4b66:	663a           	bnes 4ba2 <SAVE+0xf22>
    4b68:	082a 0006 0001 	btst #6,%a2@(1)
    4b6e:	6706           	beqs 4b76 <SAVE+0xef6>
    4b70:	006a 0040 0002 	oriw #64,%a2@(2)
    4b76:	082a 0004 0001 	btst #4,%a2@(1)
    4b7c:	6706           	beqs 4b84 <SAVE+0xf04>
    4b7e:	006a 0010 0002 	oriw #16,%a2@(2)
    4b84:	4855           	pea %a5@
    4b86:	6100 fd92      	bsrw 491a <SAVE+0xc9a>
    4b8a:	584f           	addqw #4,%sp
    4b8c:	4855           	pea %a5@
    4b8e:	6100 fc40      	bsrw 47d0 <SAVE+0xb50>
    4b92:	584f           	addqw #4,%sp
    4b94:	202e fffc      	movel %fp@(-4),%d0
    4b98:	4cee 3c00 ffe8 	moveml %fp@(-24),%a2-%a5
    4b9e:	4e5e           	unlk %fp
    4ba0:	4e75           	rts
    4ba2:	202e fff8      	movel %fp@(-8),%d0
    4ba6:	53ae fff8      	subql #1,%fp@(-8)
    4baa:	4a80           	tstl %d0
    4bac:	6eb4           	bgts 4b62 <SAVE+0xee2>
    4bae:	70ff           	moveq #-1,%d0
    4bb0:	60e6           	bras 4b98 <SAVE+0xf18>
    4bb2:	4e56 fff8      	linkw %fp,#-8
    4bb6:	206e 0008      	moveal %fp@(8),%a0
    4bba:	0c68 0001 2062 	cmpiw #1,%a0@(8290)
    4bc0:	660c           	bnes 4bce <SAVE+0xf4e>
    4bc2:	202e 000c      	movel %fp@(12),%d0
    4bc6:	9088           	subl %a0,%d0
    4bc8:	2d40 fffc      	movel %d0,%fp@(-4)
    4bcc:	6006           	bras 4bd4 <SAVE+0xf54>
    4bce:	2d6e 000c fffc 	movel %fp@(12),%fp@(-4)
    4bd4:	1d6e ffff fff8 	moveb %fp@(-1),%fp@(-8)
    4bda:	1d6e fffe fff9 	moveb %fp@(-2),%fp@(-7)
    4be0:	1d6e fffd fffa 	moveb %fp@(-3),%fp@(-6)
    4be6:	422e fffb      	clrb %fp@(-5)
    4bea:	202e fff8      	movel %fp@(-8),%d0
    4bee:	4e5e           	unlk %fp
    4bf0:	4e75           	rts
    4bf2:	4e56 fff8      	linkw %fp,#-8
    4bf6:	2e8d           	movel %a5,%sp@
    4bf8:	2a6e 0008      	moveal %fp@(8),%a5
    4bfc:	202e 000c      	movel %fp@(12),%d0
    4c00:	908d           	subl %a5,%d0
    4c02:	3d40 fffe      	movew %d0,%fp@(-2)
    4c06:	1d6e ffff fffc 	moveb %fp@(-1),%fp@(-4)
    4c0c:	1d6e fffe fffd 	moveb %fp@(-2),%fp@(-3)
    4c12:	302e fffc      	movew %fp@(-4),%d0
    4c16:	48c0           	extl %d0
    4c18:	2a6e fff8      	moveal %fp@(-8),%a5
    4c1c:	4e5e           	unlk %fp
    4c1e:	4e75           	rts
    4c20:	4e56 fffc      	linkw %fp,#-4
    4c24:	2e8d           	movel %a5,%sp@
    4c26:	2a6e 0008      	moveal %fp@(8),%a5
    4c2a:	4878 0012      	pea 12 <CACR_CLEAR+0xa>
    4c2e:	4855           	pea %a5@
    4c30:	4eb9 000a 4f44 	jsr a4f44 <_bzero>
    4c36:	504f           	addqw #8,%sp
    4c38:	022d fff8 0002 	andib #-8,%a5@(2)
    4c3e:	002d 0002 0002 	orib #2,%a5@(2)
    4c44:	022d fff0 0006 	andib #-16,%a5@(6)
    4c4a:	002d 000c 0006 	orib #12,%a5@(6)
    4c50:	022d fff0 0007 	andib #-16,%a5@(7)
    4c56:	002d 0008 0007 	orib #8,%a5@(7)
    4c5c:	022d ffcf 0009 	andib #-49,%a5@(9)
    4c62:	002d 0020 0009 	orib #32,%a5@(9)
    4c68:	022d fff8 0009 	andib #-8,%a5@(9)
    4c6e:	002d 0006 0009 	orib #6,%a5@(9)
    4c74:	08ed 0003 0009 	bset #3,%a5@(9)
    4c7a:	1b7c 0060 000b 	moveb #96,%a5@(11)
    4c80:	022d fff8 000d 	andib #-8,%a5@(13)
    4c86:	002d 0002 000d 	orib #2,%a5@(13)
    4c8c:	1b7c 0040 0010 	moveb #64,%a5@(16)
    4c92:	002d 00f0 000d 	orib #-16,%a5@(13)
    4c98:	2a6e fffc      	moveal %fp@(-4),%a5
    4c9c:	4e5e           	unlk %fp
    4c9e:	4e75           	rts
    4ca0:	4e56 fffc      	linkw %fp,#-4
    4ca4:	2e8d           	movel %a5,%sp@
    4ca6:	206e 0008      	moveal %fp@(8),%a0
    4caa:	2a68 0006      	moveal %a0@(6),%a5
    4cae:	0c6d 0002 2062 	cmpiw #2,%a5@(8290)
    4cb4:	660c           	bnes 4cc2 <SAVE+0x1042>
    4cb6:	41f9 000a 6e5e 	lea a6e5e <_obie_reset>,%a0
    4cbc:	226d 205e      	moveal %a5@(8286),%a1
    4cc0:	3290           	movew %a0@,%a1@
    4cc2:	2a6e fffc      	moveal %fp@(-4),%a5
    4cc6:	4e5e           	unlk %fp
    4cc8:	4e75           	rts
    4cca:	0000 4e56      	orib #86,%d0
    4cce:	fffc           	.short 0xfffc
    4cd0:	2e8d           	movel %a5,%sp@
    4cd2:	206e 0008      	moveal %fp@(8),%a0
    4cd6:	2a68 0006      	moveal %a0@(6),%a5
    4cda:	2b68 002e 2000 	movel %a0@(46),%a5@(8192)
    4ce0:	2b6e 0008 2004 	movel %fp@(8),%a5@(8196)
    4ce6:	206e 0008      	moveal %fp@(8),%a0
    4cea:	217c 000a 6fd8 	movel #683992,%a0@(42)
    4cf0:	002a 
    4cf2:	4855           	pea %a5@
    4cf4:	4eb9 000a 4d10 	jsr a4d10 <_ecreset>
    4cfa:	584f           	addqw #4,%sp
    4cfc:	2f2e 0008      	movel %fp@(8),%sp@-
    4d00:	4eb9 000a 5884 	jsr a5884 <_etheropen>
    4d06:	584f           	addqw #4,%sp
    4d08:	2a6e fffc      	moveal %fp@(-4),%a5
    4d0c:	4e5e           	unlk %fp
    4d0e:	4e75           	rts
    4d10:	4e56 fff4      	linkw %fp,#-12
    4d14:	48d7 3080      	moveml %d7/%a4-%a5,%sp@
    4d18:	2a6e 0008      	moveal %fp@(8),%a5
    4d1c:	286d 2000      	moveal %a5@(8192),%a4
    4d20:	38bc 0100      	movew #256,%a4@
    4d24:	2e3c 0000 0140 	movel #320,%d7
    4d2a:	2239 000a 5da6 	movel a5da6 <_cpudelay>,%d1
    4d30:	e2a7           	asrl %d1,%d7
    4d32:	5387           	subql #1,%d7
    4d34:	6efc           	bgts 4d32 <SAVE+0x10b2>
    4d36:	486c 0600      	pea %a4@(1536)
    4d3a:	4eb9 000a 4ff0 	jsr a4ff0 <_myetheraddr>
    4d40:	584f           	addqw #4,%sp
    4d42:	3014           	movew %a4@,%d0
    4d44:	0240 00ff      	andiw #255,%d0
    4d48:	0040 0800      	oriw #2048,%d0
    4d4c:	3880           	movew %d0,%a4@
    4d4e:	3014           	movew %a4@,%d0
    4d50:	0240 00ff      	andiw #255,%d0
    4d54:	0040 c007      	oriw #-16377,%d0
    4d58:	3880           	movew %d0,%a4@
    4d5a:	4cee 3080 fff4 	moveml %fp@(-12),%d7/%a4-%a5
    4d60:	4e5e           	unlk %fp
    4d62:	4e75           	rts
    4d64:	4e56 ffec      	linkw %fp,#-20
    4d68:	2e8d           	movel %a5,%sp@
    4d6a:	206e 0008      	moveal %fp@(8),%a0
    4d6e:	2a68 2000      	moveal %a0@(8192),%a5
    4d72:	2079 0fef 009c 	moveal fef009c <_end+0xfe34a88>,%a0
    4d78:	2010           	movel %a0@,%d0
    4d7a:	0680 0000 01f4 	addil #500,%d0
    4d80:	2d40 fff8      	movel %d0,%fp@(-8)
    4d84:	3d7c ffff fff6 	movew #-1,%fp@(-10)
    4d8a:	41ed 1000      	lea %a5@(4096),%a0
    4d8e:	202e 0010      	movel %fp@(16),%d0
    4d92:	4480           	negl %d0
    4d94:	d1c0           	addal %d0,%a0
    4d96:	2d48 fffc      	movel %a0,%fp@(-4)
    4d9a:	2f2e 0010      	movel %fp@(16),%sp@-
    4d9e:	2f08           	movel %a0,%sp@-
    4da0:	2f2e 000c      	movel %fp@(12),%sp@-
    4da4:	4eb9 000a 4f6a 	jsr a4f6a <_bcopy>
    4daa:	4fef 000c      	lea %sp@(12),%sp
    4dae:	41ed 0800      	lea %a5@(2048),%a0
    4db2:	202e fffc      	movel %fp@(-4),%d0
    4db6:	9088           	subl %a0,%d0
    4db8:	3b40 0800      	movew %d0,%a5@(2048)
    4dbc:	3015           	movew %a5@,%d0
    4dbe:	0240 00ff      	andiw #255,%d0
    4dc2:	0040 2000      	oriw #8192,%d0
    4dc6:	3a80           	movew %d0,%a5@
    4dc8:	2079 0fef 009c 	moveal fef009c <_end+0xfe34a88>,%a0
    4dce:	2010           	movel %a0@,%d0
    4dd0:	b0ae fff8      	cmpl %fp@(-8),%d0
    4dd4:	6e12           	bgts 4de8 <SAVE+0x1168>
    4dd6:	3015           	movew %a5@,%d0
    4dd8:	0800 000c      	btst #12,%d0
    4ddc:	6756           	beqs 4e34 <SAVE+0x11b4>
    4dde:	e1ee fff6      	aslw %fp@(-10)
    4de2:	4a6e fff6      	tstw %fp@(-10)
    4de6:	660e           	bnes 4df6 <SAVE+0x1176>
    4de8:	2f2e 0008      	movel %fp@(8),%sp@-
    4dec:	6100 ff22      	bsrw 4d10 <SAVE+0x1090>
    4df0:	584f           	addqw #4,%sp
    4df2:	70ff           	moveq #-1,%d0
    4df4:	6048           	bras 4e3e <SAVE+0x11be>
    4df6:	2079 0fef 009c 	moveal fef009c <_end+0xfe34a88>,%a0
    4dfc:	2010           	movel %a0@,%d0
    4dfe:	322e fff6      	movew %fp@(-10),%d1
    4e02:	4641           	notw %d1
    4e04:	48c1           	extl %d1
    4e06:	c081           	andl %d1,%d0
    4e08:	4480           	negl %d0
    4e0a:	3d40 fff2      	movew %d0,%fp@(-14)
    4e0e:	6612           	bnes 4e22 <SAVE+0x11a2>
    4e10:	302e fff6      	movew %fp@(-10),%d0
    4e14:	4640           	notw %d0
    4e16:	0280 0000 5555 	andil #21845,%d0
    4e1c:	4480           	negl %d0
    4e1e:	3d40 fff2      	movew %d0,%fp@(-14)
    4e22:	3b6e fff2 0002 	movew %fp@(-14),%a5@(2)
    4e28:	3015           	movew %a5@,%d0
    4e2a:	0240 00ff      	andiw #255,%d0
    4e2e:	0040 1000      	oriw #4096,%d0
    4e32:	3a80           	movew %d0,%a5@
    4e34:	3015           	movew %a5@,%d0
    4e36:	0800 000d      	btst #13,%d0
    4e3a:	668c           	bnes 4dc8 <SAVE+0x1148>
    4e3c:	7000           	moveq #0,%d0
    4e3e:	2a6e ffec      	moveal %fp@(-20),%a5
    4e42:	4e5e           	unlk %fp
    4e44:	4e75           	rts
    4e46:	4e56 fff0      	linkw %fp,#-16
    4e4a:	2e8d           	movel %a5,%sp@
    4e4c:	206e 0008      	moveal %fp@(8),%a0
    4e50:	2a68 2000      	moveal %a0@(8192),%a5
    4e54:	42ae fff4      	clrl %fp@(-12)
    4e58:	3015           	movew %a5@,%d0
    4e5a:	0800 000e      	btst #14,%d0
    4e5e:	6612           	bnes 4e72 <SAVE+0x11f2>
    4e60:	41ed 1000      	lea %a5@(4096),%a0
    4e64:	2d48 fff8      	movel %a0,%fp@(-8)
    4e68:	2d7c 0000 4000 	movel #16384,%fp@(-12)
    4e6e:	fff4 
    4e70:	601e           	bras 4e90 <SAVE+0x1210>
    4e72:	3015           	movew %a5@,%d0
    4e74:	0800 000f      	btst #15,%d0
    4e78:	6612           	bnes 4e8c <SAVE+0x120c>
    4e7a:	41ed 1800      	lea %a5@(6144),%a0
    4e7e:	2d48 fff8      	movel %a0,%fp@(-8)
    4e82:	2d7c 0000 8000 	movel #32768,%fp@(-12)
    4e88:	fff4 
    4e8a:	6004           	bras 4e90 <SAVE+0x1210>
    4e8c:	7000           	moveq #0,%d0
    4e8e:	603c           	bras 4ecc <SAVE+0x124c>
    4e90:	206e fff8      	moveal %fp@(-8),%a0
    4e94:	3010           	movew %a0@,%d0
    4e96:	0240 07ff      	andiw #2047,%d0
    4e9a:	3d40 fffe      	movew %d0,%fp@(-2)
    4e9e:	54ae fff8      	addql #2,%fp@(-8)
    4ea2:	48c0           	extl %d0
    4ea4:	2f00           	movel %d0,%sp@-
    4ea6:	2f2e 000c      	movel %fp@(12),%sp@-
    4eaa:	2f2e fff8      	movel %fp@(-8),%sp@-
    4eae:	4eb9 000a 4f6a 	jsr a4f6a <_bcopy>
    4eb4:	4fef 000c      	lea %sp@(12),%sp
    4eb8:	3015           	movew %a5@,%d0
    4eba:	0280 0000 00ff 	andil #255,%d0
    4ec0:	80ae fff4      	orl %fp@(-12),%d0
    4ec4:	3a80           	movew %d0,%a5@
    4ec6:	302e fffe      	movew %fp@(-2),%d0
    4eca:	48c0           	extl %d0
    4ecc:	2a6e fff0      	moveal %fp@(-16),%a5
    4ed0:	4e5e           	unlk %fp
    4ed2:	4e75           	rts
    4ed4:	4e56 fff0      	linkw %fp,#-16
    4ed8:	2e8d           	movel %a5,%sp@
    4eda:	2a6e 000c      	moveal %fp@(12),%a5
    4ede:	422e fffb      	clrb %fp@(-5)
    4ee2:	4878 0001      	pea 1 <CACR_ENABLE>
    4ee6:	486e fff7      	pea %fp@(-9)
    4eea:	4eb9 000a 5c0c 	jsr a5c0c <_getidprom>
    4ef0:	504f           	addqw #8,%sp
    4ef2:	102e 000b      	moveb %fp@(11),%d0
    4ef6:	b02e fff7      	cmpb %fp@(-9),%d0
    4efa:	663a           	bnes 4f36 <SAVE+0x12b6>
    4efc:	4878 0020      	pea 20 <CACR_CLEAR+0x18>
    4f00:	4855           	pea %a5@
    4f02:	4eb9 000a 5c0c 	jsr a5c0c <_getidprom>
    4f08:	504f           	addqw #8,%sp
    4f0a:	2d4d fffc      	movel %a5,%fp@(-4)
    4f0e:	426e fff4      	clrw %fp@(-12)
    4f12:	206e fffc      	moveal %fp@(-4),%a0
    4f16:	1010           	moveb %a0@,%d0
    4f18:	b12e fffb      	eorb %d0,%fp@(-5)
    4f1c:	52ae fffc      	addql #1,%fp@(-4)
    4f20:	526e fff4      	addqw #1,%fp@(-12)
    4f24:	0c6e 0010 fff4 	cmpiw #16,%fp@(-12)
    4f2a:	6de6           	blts 4f12 <SAVE+0x1292>
    4f2c:	4a2e fffb      	tstb %fp@(-5)
    4f30:	6704           	beqs 4f36 <SAVE+0x12b6>
    4f32:	70ff           	moveq #-1,%d0
    4f34:	6006           	bras 4f3c <SAVE+0x12bc>
    4f36:	7000           	moveq #0,%d0
    4f38:	102e fff7      	moveb %fp@(-9),%d0
    4f3c:	2a6e fff0      	moveal %fp@(-16),%a5
    4f40:	4e5e           	unlk %fp
    4f42:	4e75           	rts
    4f44:	4e56 fff4      	linkw %fp,#-12
    4f48:	48d7 20c0      	moveml %d6-%d7/%a5,%sp@
    4f4c:	2a6e 0008      	moveal %fp@(8),%a5
    4f50:	2e2e 000c      	movel %fp@(12),%d7
    4f54:	7c00           	moveq #0,%d6
    4f56:	6004           	bras 4f5c <SAVE+0x12dc>
    4f58:	1ac6           	moveb %d6,%a5@+
    4f5a:	5387           	subql #1,%d7
    4f5c:	4a87           	tstl %d7
    4f5e:	6ef8           	bgts 4f58 <SAVE+0x12d8>
    4f60:	4cee 20c0 fff4 	moveml %fp@(-12),%d6-%d7/%a5
    4f66:	4e5e           	unlk %fp
    4f68:	4e75           	rts
    4f6a:	4e56 fff4      	linkw %fp,#-12
    4f6e:	48d7 3080      	moveml %d7/%a4-%a5,%sp@
    4f72:	2a6e 0008      	moveal %fp@(8),%a5
    4f76:	286e 000c      	moveal %fp@(12),%a4
    4f7a:	2e2e 0010      	movel %fp@(16),%d7
    4f7e:	6002           	bras 4f82 <SAVE+0x1302>
    4f80:	18dd           	moveb %a5@+,%a4@+
    4f82:	51cf fffc      	dbf %d7,4f80 <SAVE+0x1300>
    4f86:	4247           	clrw %d7
    4f88:	5387           	subql #1,%d7
    4f8a:	64f4           	bccs 4f80 <SAVE+0x1300>
    4f8c:	4cee 3080 fff4 	moveml %fp@(-12),%d7/%a4-%a5
    4f92:	4e5e           	unlk %fp
    4f94:	4e75           	rts
    4f96:	4e56 fff8      	linkw %fp,#-8
    4f9a:	48d7 3000      	moveml %a4-%a5,%sp@
    4f9e:	2a6e 0008      	moveal %fp@(8),%a5
    4fa2:	286e 000c      	moveal %fp@(12),%a4
    4fa6:	1015           	moveb %a5@,%d0
    4fa8:	b01c           	cmpb %a4@+,%d0
    4faa:	6718           	beqs 4fc4 <SAVE+0x1344>
    4fac:	1015           	moveb %a5@,%d0
    4fae:	4880           	extw %d0
    4fb0:	48c0           	extl %d0
    4fb2:	1224           	moveb %a4@-,%d1
    4fb4:	4881           	extw %d1
    4fb6:	48c1           	extl %d1
    4fb8:	9081           	subl %d1,%d0
    4fba:	4cee 3000 fff8 	moveml %fp@(-8),%a4-%a5
    4fc0:	4e5e           	unlk %fp
    4fc2:	4e75           	rts
    4fc4:	4a1d           	tstb %a5@+
    4fc6:	66de           	bnes 4fa6 <SAVE+0x1326>
    4fc8:	7000           	moveq #0,%d0
    4fca:	60ee           	bras 4fba <SAVE+0x133a>
    4fcc:	4e56 fff8      	linkw %fp,#-8
    4fd0:	48d7 2080      	moveml %d7/%a5,%sp@
    4fd4:	2a6e 0008      	moveal %fp@(8),%a5
    4fd8:	7e00           	moveq #0,%d7
    4fda:	6002           	bras 4fde <SAVE+0x135e>
    4fdc:	5287           	addql #1,%d7
    4fde:	4a1d           	tstb %a5@+
    4fe0:	66fa           	bnes 4fdc <SAVE+0x135c>
    4fe2:	2007           	movel %d7,%d0
    4fe4:	4cee 2080 fff8 	moveml %fp@(-8),%d7/%a5
    4fea:	4e5e           	unlk %fp
    4fec:	4e75           	rts
    4fee:	0000 4e56      	orib #86,%d0
    4ff2:	ffe0           	.short 0xffe0
    4ff4:	486e ffe0      	pea %fp@(-32)
    4ff8:	4878 0001      	pea 1 <CACR_ENABLE>
    4ffc:	4eb9 000a 4ed4 	jsr a4ed4 <_idprom>
    5002:	504f           	addqw #8,%sp
    5004:	7201           	moveq #1,%d1
    5006:	b081           	cmpl %d1,%d0
    5008:	6712           	beqs 501c <SAVE+0x139c>
    500a:	4879 000a 702c 	pea a702c <_etherbroadcastaddr+0x6>
    5010:	2079 0fef 0084 	moveal fef0084 <_end+0xfe34a70>,%a0
    5016:	4e90           	jsr %a0@
    5018:	584f           	addqw #4,%sp
    501a:	6010           	bras 502c <SAVE+0x13ac>
    501c:	41ee ffe2      	lea %fp@(-30),%a0
    5020:	226e 0008      	moveal %fp@(8),%a1
    5024:	3368 0004 0004 	movew %a0@(4),%a1@(4)
    502a:	2290           	movel %a0@,%a1@
    502c:	4e5e           	unlk %fp
    502e:	4e75           	rts
    5030:	4e56 fff8      	linkw %fp,#-8
    5034:	48d7 3000      	moveml %a4-%a5,%sp@
    5038:	2a6e 0008      	moveal %fp@(8),%a5
    503c:	286e 000c      	moveal %fp@(12),%a4
    5040:	486c 0004      	pea %a4@(4)
    5044:	4eb9 000a 4ff0 	jsr a4ff0 <_myetheraddr>
    504a:	584f           	addqw #4,%sp
    504c:	42ac 000a      	clrl %a4@(10)
    5050:	41f9 000a 7026 	lea a7026 <_etherbroadcastaddr>,%a0
    5056:	3968 0004 0012 	movew %a0@(4),%a4@(18)
    505c:	2950 000e      	movel %a0@,%a4@(14)
    5060:	2f2e 0010      	movel %fp@(16),%sp@-
    5064:	4854           	pea %a4@
    5066:	4855           	pea %a5@
    5068:	4eb9 000a 52ca 	jsr a52ca <_revarp>
    506e:	4fef 000c      	lea %sp@(12),%sp
    5072:	4cee 3000 fff8 	moveml %fp@(-8),%a4-%a5
    5078:	4e5e           	unlk %fp
    507a:	4e75           	rts
    507c:	4e56 fff0      	linkw %fp,#-16
    5080:	48d7 3c00      	moveml %a2-%a5,%sp@
    5084:	2a6e 0008      	moveal %fp@(8),%a5
    5088:	286e 0014      	moveal %fp@(20),%a4
    508c:	266e 000c      	moveal %fp@(12),%a3
    5090:	244b           	moveal %a3,%a2
    5092:	720e           	moveq #14,%d1
    5094:	d5c1           	addal %d1,%a2
    5096:	202a 0010      	movel %a2@(16),%d0
    509a:	b0ac 000a      	cmpl %a4@(10),%d0
    509e:	6718           	beqs 50b8 <SAVE+0x1438>
    50a0:	296a 0010 000a 	movel %a2@(16),%a4@(10)
    50a6:	2f2e 0018      	movel %fp@(24),%sp@-
    50aa:	4854           	pea %a4@
    50ac:	4855           	pea %a5@
    50ae:	4eb9 000a 5256 	jsr a5256 <_arp>
    50b4:	4fef 000c      	lea %sp@(12),%sp
    50b8:	377c 0800 000c 	movew #2048,%a3@(12)
    50be:	41ec 0004      	lea %a4@(4),%a0
    50c2:	3768 0004 000a 	movew %a0@(4),%a3@(10)
    50c8:	2750 0006      	movel %a0@,%a3@(6)
    50cc:	41ec 000e      	lea %a4@(14),%a0
    50d0:	3768 0004 0004 	movew %a0@(4),%a3@(4)
    50d6:	2690           	movel %a0@,%a3@
    50d8:	426a 000a      	clrw %a2@(10)
    50dc:	4878 0014      	pea 14 <CACR_CLEAR+0xc>
    50e0:	4852           	pea %a2@
    50e2:	4eb9 000a 560a 	jsr a560a <_ipcksum>
    50e8:	504f           	addqw #8,%sp
    50ea:	3540 000a      	movew %d0,%a2@(10)
    50ee:	0c6e 003c 0012 	cmpiw #60,%fp@(18)
    50f4:	6c06           	bges 50fc <SAVE+0x147c>
    50f6:	3d7c 003c 0012 	movew #60,%fp@(18)
    50fc:	302e 0012      	movew %fp@(18),%d0
    5100:	48c0           	extl %d0
    5102:	2f00           	movel %d0,%sp@-
    5104:	2f2e 000c      	movel %fp@(12),%sp@-
    5108:	2f2d 0006      	movel %a5@(6),%sp@-
    510c:	206d 002a      	moveal %a5@(42),%a0
    5110:	2050           	moveal %a0@,%a0
    5112:	4e90           	jsr %a0@
    5114:	4fef 000c      	lea %sp@(12),%sp
    5118:	4cee 3c00 fff0 	moveml %fp@(-16),%a2-%a5
    511e:	4e5e           	unlk %fp
    5120:	4e75           	rts
    5122:	4e56 ffe8      	linkw %fp,#-24
    5126:	48d7 3c80      	moveml %d7/%a2-%a5,%sp@
    512a:	2a6e 0008      	moveal %fp@(8),%a5
    512e:	286e 0010      	moveal %fp@(16),%a4
    5132:	2f2e 000c      	movel %fp@(12),%sp@-
    5136:	2f2d 0006      	movel %a5@(6),%sp@-
    513a:	206d 002a      	moveal %a5@(42),%a0
    513e:	2068 0004      	moveal %a0@(4),%a0
    5142:	4e90           	jsr %a0@
    5144:	504f           	addqw #8,%sp
    5146:	3e00           	movew %d0,%d7
    5148:	266e 000c      	moveal %fp@(12),%a3
    514c:	0c6b 0800 000c 	cmpiw #2048,%a3@(12)
    5152:	661c           	bnes 5170 <SAVE+0x14f0>
    5154:	0c47 0022      	cmpiw #34,%d7
    5158:	6d16           	blts 5170 <SAVE+0x14f0>
    515a:	720e           	moveq #14,%d1
    515c:	d7c1           	addal %d1,%a3
    515e:	202b 0010      	movel %a3@(16),%d0
    5162:	b094           	cmpl %a4@,%d0
    5164:	6600 00e4      	bnew 524a <SAVE+0x15ca>
    5168:	3007           	movew %d7,%d0
    516a:	48c0           	extl %d0
    516c:	6000 00de      	braw 524c <SAVE+0x15cc>
    5170:	0c6b 0806 000c 	cmpiw #2054,%a3@(12)
    5176:	6600 00d2      	bnew 524a <SAVE+0x15ca>
    517a:	0c47 002a      	cmpiw #42,%d7
    517e:	6d00 00ca      	bltw 524a <SAVE+0x15ca>
    5182:	202e 000c      	movel %fp@(12),%d0
    5186:	7e0e           	moveq #14,%d7
    5188:	d087           	addl %d7,%d0
    518a:	2d40 fffc      	movel %d0,%fp@(-4)
    518e:	2040           	moveal %d0,%a0
    5190:	0c68 0800 0002 	cmpiw #2048,%a0@(2)
    5196:	6600 00b2      	bnew 524a <SAVE+0x15ca>
    519a:	2040           	moveal %d0,%a0
    519c:	2028 000e      	movel %a0@(14),%d0
    51a0:	b0ac 000a      	cmpl %a4@(10),%d0
    51a4:	6610           	bnes 51b6 <SAVE+0x1536>
    51a6:	206e fffc      	moveal %fp@(-4),%a0
    51aa:	5088           	addql #8,%a0
    51ac:	3968 0004 0012 	movew %a0@(4),%a4@(18)
    51b2:	2950 000e      	movel %a0@,%a4@(14)
    51b6:	206e fffc      	moveal %fp@(-4),%a0
    51ba:	0c68 0001 0006 	cmpiw #1,%a0@(6)
    51c0:	6600 0088      	bnew 524a <SAVE+0x15ca>
    51c4:	2028 0018      	movel %a0@(24),%d0
    51c8:	b094           	cmpl %a4@,%d0
    51ca:	667e           	bnes 524a <SAVE+0x15ca>
    51cc:	317c 0002 0006 	movew #2,%a0@(6)
    51d2:	206e fffc      	moveal %fp@(-4),%a0
    51d6:	5088           	addql #8,%a0
    51d8:	3768 0004 0004 	movew %a0@(4),%a3@(4)
    51de:	2690           	movel %a0@,%a3@
    51e0:	41ec 0004      	lea %a4@(4),%a0
    51e4:	3768 0004 000a 	movew %a0@(4),%a3@(10)
    51ea:	2750 0006      	movel %a0@,%a3@(6)
    51ee:	206e fffc      	moveal %fp@(-4),%a0
    51f2:	5088           	addql #8,%a0
    51f4:	226e fffc      	moveal %fp@(-4),%a1
    51f8:	7e12           	moveq #18,%d7
    51fa:	d3c7           	addal %d7,%a1
    51fc:	3368 0004 0004 	movew %a0@(4),%a1@(4)
    5202:	2290           	movel %a0@,%a1@
    5204:	206e fffc      	moveal %fp@(-4),%a0
    5208:	7e0e           	moveq #14,%d7
    520a:	d1c7           	addal %d7,%a0
    520c:	226e fffc      	moveal %fp@(-4),%a1
    5210:	7e18           	moveq #24,%d7
    5212:	d3c7           	addal %d7,%a1
    5214:	2290           	movel %a0@,%a1@
    5216:	41ec 0004      	lea %a4@(4),%a0
    521a:	226e fffc      	moveal %fp@(-4),%a1
    521e:	5089           	addql #8,%a1
    5220:	3368 0004 0004 	movew %a0@(4),%a1@(4)
    5226:	2290           	movel %a0@,%a1@
    5228:	206e fffc      	moveal %fp@(-4),%a0
    522c:	7e0e           	moveq #14,%d7
    522e:	d1c7           	addal %d7,%a0
    5230:	2094           	movel %a4@,%a0@
    5232:	4878 003c      	pea 3c <CACR_CLEAR+0x34>
    5236:	2f2e 000c      	movel %fp@(12),%sp@-
    523a:	2f2d 0006      	movel %a5@(6),%sp@-
    523e:	206d 002a      	moveal %a5@(42),%a0
    5242:	2050           	moveal %a0@,%a0
    5244:	4e90           	jsr %a0@
    5246:	4fef 000c      	lea %sp@(12),%sp
    524a:	7000           	moveq #0,%d0
    524c:	4cee 3c80 ffe8 	moveml %fp@(-24),%d7/%a2-%a5
    5252:	4e5e           	unlk %fp
    5254:	4e75           	rts
    5256:	4e56 ffbc      	linkw %fp,#-68
    525a:	48d7 3000      	moveml %a4-%a5,%sp@
    525e:	2a6e 0008      	moveal %fp@(8),%a5
    5262:	286e 000c      	moveal %fp@(12),%a4
    5266:	2f2c 000a      	movel %a4@(10),%sp@-
    526a:	4eb9 000a 559c 	jsr a559c <_in_broadaddr>
    5270:	584f           	addqw #4,%sp
    5272:	4a80           	tstl %d0
    5274:	6712           	beqs 5288 <SAVE+0x1608>
    5276:	41f9 000a 7026 	lea a7026 <_etherbroadcastaddr>,%a0
    527c:	3968 0004 0012 	movew %a0@(4),%a4@(18)
    5282:	2950 000e      	movel %a0@,%a4@(14)
    5286:	6038           	bras 52c0 <SAVE+0x1640>
    5288:	3d7c 0806 ffd0 	movew #2054,%fp@(-48)
    528e:	3d7c 0001 ffd8 	movew #1,%fp@(-40)
    5294:	41f9 000a 7026 	lea a7026 <_etherbroadcastaddr>,%a0
    529a:	3d68 0004 ffe8 	movew %a0@(4),%fp@(-24)
    52a0:	2d50 ffe4      	movel %a0@,%fp@(-28)
    52a4:	2d6c 000a ffea 	movel %a4@(10),%fp@(-22)
    52aa:	2f2e 0010      	movel %fp@(16),%sp@-
    52ae:	486e ffc4      	pea %fp@(-60)
    52b2:	4854           	pea %a4@
    52b4:	4855           	pea %a5@
    52b6:	4eb9 000a 5318 	jsr a5318 <_comarp>
    52bc:	4fef 0010      	lea %sp@(16),%sp
    52c0:	4cee 3000 ffbc 	moveml %fp@(-68),%a4-%a5
    52c6:	4e5e           	unlk %fp
    52c8:	4e75           	rts
    52ca:	4e56 ffbc      	linkw %fp,#-68
    52ce:	48d7 3000      	moveml %a4-%a5,%sp@
    52d2:	2a6e 0008      	moveal %fp@(8),%a5
    52d6:	286e 000c      	moveal %fp@(12),%a4
    52da:	3d7c 8035 ffd0 	movew #-32715,%fp@(-48)
    52e0:	3d7c 0003 ffd8 	movew #3,%fp@(-40)
    52e6:	41ec 0004      	lea %a4@(4),%a0
    52ea:	3d68 0004 ffe8 	movew %a0@(4),%fp@(-24)
    52f0:	2d50 ffe4      	movel %a0@,%fp@(-28)
    52f4:	42ae ffea      	clrl %fp@(-22)
    52f8:	2f2e 0010      	movel %fp@(16),%sp@-
    52fc:	486e ffc4      	pea %fp@(-60)
    5300:	4854           	pea %a4@
    5302:	4855           	pea %a5@
    5304:	4eb9 000a 5318 	jsr a5318 <_comarp>
    530a:	4fef 0010      	lea %sp@(16),%sp
    530e:	4cee 3000 ffbc 	moveml %fp@(-68),%a4-%a5
    5314:	4e5e           	unlk %fp
    5316:	4e75           	rts
    5318:	4e56 ffd4      	linkw %fp,#-44
    531c:	48d7 3cfc      	moveml %d2-%d7/%a2-%a5,%sp@
    5320:	2a6e 0008      	moveal %fp@(8),%a5
    5324:	286e 000c      	moveal %fp@(12),%a4
    5328:	266e 0010      	moveal %fp@(16),%a3
    532c:	246e 0014      	moveal %fp@(20),%a2
    5330:	7402           	moveq #2,%d2
    5332:	2d7c 000a 704f 	movel #684111,%fp@(-4)
    5338:	fffc 
    533a:	41f9 000a 7026 	lea a7026 <_etherbroadcastaddr>,%a0
    5340:	3768 0004 0004 	movew %a0@(4),%a3@(4)
    5346:	2690           	movel %a0@,%a3@
    5348:	41ec 0004      	lea %a4@(4),%a0
    534c:	3768 0004 000a 	movew %a0@(4),%a3@(10)
    5352:	2750 0006      	movel %a0@,%a3@(6)
    5356:	377c 0001 000e 	movew #1,%a3@(14)
    535c:	377c 0800 0010 	movew #2048,%a3@(16)
    5362:	177c 0006 0012 	moveb #6,%a3@(18)
    5368:	177c 0004 0013 	moveb #4,%a3@(19)
    536e:	41ec 0004      	lea %a4@(4),%a0
    5372:	3768 0004 001a 	movew %a0@(4),%a3@(26)
    5378:	2750 0016      	movel %a0@,%a3@(22)
    537c:	2754 001c      	movel %a4@,%a3@(28)
    5380:	7800           	moveq #0,%d4
    5382:	7c00           	moveq #0,%d6
    5384:	601c           	bras 53a2 <SAVE+0x1722>
    5386:	4879 000a 7075 	pea a7075 <_etherbroadcastaddr+0x4f>
    538c:	2079 0fef 0084 	moveal fef0084 <_end+0xfe34a70>,%a0
    5392:	4e90           	jsr %a0@
    5394:	584f           	addqw #4,%sp
    5396:	486b 0020      	pea %a3@(32)
    539a:	4eb9 000a 5680 	jsr a5680 <_ether_print>
    53a0:	584f           	addqw #4,%sp
    53a2:	4878 003c      	pea 3c <CACR_CLEAR+0x34>
    53a6:	4853           	pea %a3@
    53a8:	2f2d 0006      	movel %a5@(6),%sp@-
    53ac:	206d 002a      	moveal %a5@(42),%a0
    53b0:	2050           	moveal %a0@,%a0
    53b2:	4e90           	jsr %a0@
    53b4:	4fef 000c      	lea %sp@(12),%sp
    53b8:	4a80           	tstl %d0
    53ba:	6712           	beqs 53ce <SAVE+0x174e>
    53bc:	4879 000a 7097 	pea a7097 <_etherbroadcastaddr+0x71>
    53c2:	2079 0fef 0084 	moveal fef0084 <_end+0xfe34a70>,%a0
    53c8:	4e90           	jsr %a0@
    53ca:	584f           	addqw #4,%sp
    53cc:	6032           	bras 5400 <SAVE+0x1780>
    53ce:	2004           	movel %d4,%d0
    53d0:	5284           	addql #1,%d4
    53d2:	7203           	moveq #3,%d1
    53d4:	4a80           	tstl %d0
    53d6:	6c08           	bges 53e0 <SAVE+0x1760>
    53d8:	4480           	negl %d0
    53da:	c081           	andl %d1,%d0
    53dc:	4480           	negl %d0
    53de:	6002           	bras 53e2 <SAVE+0x1762>
    53e0:	c081           	andl %d1,%d0
    53e2:	206e fffc      	moveal %fp@(-4),%a0
    53e6:	1030 0800      	moveb %a0@(00000000,%d0:l),%d0
    53ea:	4880           	extw %d0
    53ec:	48c0           	extl %d0
    53ee:	2f00           	movel %d0,%sp@-
    53f0:	4879 000a 709a 	pea a709a <_etherbroadcastaddr+0x74>
    53f6:	2079 0fef 0084 	moveal fef0084 <_end+0xfe34a70>,%a0
    53fc:	4e90           	jsr %a0@
    53fe:	504f           	addqw #8,%sp
    5400:	2a02           	movel %d2,%d5
    5402:	e785           	asll #3,%d5
    5404:	2205           	movel %d5,%d1
    5406:	e581           	asll #2,%d1
    5408:	9a81           	subl %d1,%d5
    540a:	eb81           	asll #5,%d1
    540c:	da81           	addl %d1,%d5
    540e:	2079 0fef 009c 	moveal fef009c <_end+0xfe34a88>,%a0
    5414:	da90           	addl %a0@,%d5
    5416:	2079 0fef 009c 	moveal fef009c <_end+0xfe34a88>,%a0
    541c:	ba90           	cmpl %a0@,%d5
    541e:	6d00 00ea      	bltw 550a <SAVE+0x188a>
    5422:	2f2e 0014      	movel %fp@(20),%sp@-
    5426:	2f2d 0006      	movel %a5@(6),%sp@-
    542a:	206d 002a      	moveal %a5@(42),%a0
    542e:	2068 0004      	moveal %a0@(4),%a0
    5432:	4e90           	jsr %a0@
    5434:	504f           	addqw #8,%sp
    5436:	7e2a           	moveq #42,%d7
    5438:	b087           	cmpl %d7,%d0
    543a:	6dda           	blts 5416 <SAVE+0x1796>
    543c:	0c6a 0800 0010 	cmpiw #2048,%a2@(16)
    5442:	66d2           	bnes 5416 <SAVE+0x1796>
    5444:	0c6b 0001 0014 	cmpiw #1,%a3@(20)
    544a:	664e           	bnes 549a <SAVE+0x181a>
    544c:	0c6a 0806 000c 	cmpiw #2054,%a2@(12)
    5452:	66c2           	bnes 5416 <SAVE+0x1796>
    5454:	0c6a 0002 0014 	cmpiw #2,%a2@(20)
    545a:	66ba           	bnes 5416 <SAVE+0x1796>
    545c:	202a 001c      	movel %a2@(28),%d0
    5460:	b0ab 0026      	cmpl %a3@(38),%d0
    5464:	66b0           	bnes 5416 <SAVE+0x1796>
    5466:	7e02           	moveq #2,%d7
    5468:	bc87           	cmpl %d7,%d6
    546a:	6d1c           	blts 5488 <SAVE+0x1808>
    546c:	4879 000a 709e 	pea a709e <_etherbroadcastaddr+0x78>
    5472:	2079 0fef 0084 	moveal fef0084 <_end+0xfe34a70>,%a0
    5478:	4e90           	jsr %a0@
    547a:	584f           	addqw #4,%sp
    547c:	486a 0016      	pea %a2@(22)
    5480:	4eb9 000a 5680 	jsr a5680 <_ether_print>
    5486:	584f           	addqw #4,%sp
    5488:	41ea 0016      	lea %a2@(22),%a0
    548c:	3968 0004 0012 	movew %a0@(4),%a4@(18)
    5492:	2950 000e      	movel %a0@,%a4@(14)
    5496:	6000 00be      	braw 5556 <SAVE+0x18d6>
    549a:	0c6a 8035 000c 	cmpiw #-32715,%a2@(12)
    54a0:	6600 ff74      	bnew 5416 <SAVE+0x1796>
    54a4:	0c6a 0004 0014 	cmpiw #4,%a2@(20)
    54aa:	6600 ff6a      	bnew 5416 <SAVE+0x1796>
    54ae:	4878 0006      	pea 6 <SUPCONTEXTOFF>
    54b2:	486b 0020      	pea %a3@(32)
    54b6:	486a 0020      	pea %a2@(32)
    54ba:	4eb9 000a 5cac 	jsr a5cac <_bcmp>
    54c0:	4fef 000c      	lea %sp@(12),%sp
    54c4:	4a80           	tstl %d0
    54c6:	6600 ff4e      	bnew 5416 <SAVE+0x1796>
    54ca:	7e02           	moveq #2,%d7
    54cc:	bc87           	cmpl %d7,%d6
    54ce:	6d1c           	blts 54ec <SAVE+0x186c>
    54d0:	4879 000a 70a8 	pea a70a8 <_etherbroadcastaddr+0x82>
    54d6:	2079 0fef 0084 	moveal fef0084 <_end+0xfe34a70>,%a0
    54dc:	4e90           	jsr %a0@
    54de:	584f           	addqw #4,%sp
    54e0:	2f2a 0026      	movel %a2@(38),%sp@-
    54e4:	4eb9 000a 5646 	jsr a5646 <_inet_print>
    54ea:	584f           	addqw #4,%sp
    54ec:	41ea 0026      	lea %a2@(38),%a0
    54f0:	2890           	movel %a0@,%a4@
    54f2:	41ea 001c      	lea %a2@(28),%a0
    54f6:	2950 000a      	movel %a0@,%a4@(10)
    54fa:	41ea 0016      	lea %a2@(22),%a0
    54fe:	3968 0004 0012 	movew %a0@(4),%a4@(18)
    5504:	2950 000e      	movel %a0@,%a4@(14)
    5508:	604c           	bras 5556 <SAVE+0x18d6>
    550a:	e382           	asll #1,%d2
    550c:	7e40           	moveq #64,%d7
    550e:	b487           	cmpl %d7,%d2
    5510:	6f02           	bles 5514 <SAVE+0x1894>
    5512:	7440           	moveq #64,%d2
    5514:	2f2d 0006      	movel %a5@(6),%sp@-
    5518:	206d 002a      	moveal %a5@(42),%a0
    551c:	2068 0008      	moveal %a0@(8),%a0
    5520:	4e90           	jsr %a0@
    5522:	584f           	addqw #4,%sp
    5524:	5286           	addql #1,%d6
    5526:	7e02           	moveq #2,%d7
    5528:	bc87           	cmpl %d7,%d6
    552a:	6600 fe76      	bnew 53a2 <SAVE+0x1722>
    552e:	0c6b 0001 0014 	cmpiw #1,%a3@(20)
    5534:	6600 fe50      	bnew 5386 <SAVE+0x1706>
    5538:	4879 000a 7053 	pea a7053 <_etherbroadcastaddr+0x2d>
    553e:	2079 0fef 0084 	moveal fef0084 <_end+0xfe34a70>,%a0
    5544:	4e90           	jsr %a0@
    5546:	584f           	addqw #4,%sp
    5548:	2f2b 0026      	movel %a3@(38),%sp@-
    554c:	4eb9 000a 5646 	jsr a5646 <_inet_print>
    5552:	6000 fe4c      	braw 53a0 <SAVE+0x1720>
    5556:	4cee 3cfc ffd4 	moveml %fp@(-44),%d2-%d7/%a2-%a5
    555c:	4e5e           	unlk %fp
    555e:	4e75           	rts
    5560:	4e56 fffc      	linkw %fp,#-4
    5564:	2e87           	movel %d7,%sp@
    5566:	2e2e 0008      	movel %fp@(8),%d7
    556a:	0807 001f      	btst #31,%d7
    556e:	660a           	bnes 557a <SAVE+0x18fa>
    5570:	2007           	movel %d7,%d0
    5572:	0280 00ff ffff 	andil #16777215,%d0
    5578:	601a           	bras 5594 <SAVE+0x1914>
    557a:	2007           	movel %d7,%d0
    557c:	0280 c000 0000 	andil #-1073741824,%d0
    5582:	0c80 8000 0000 	cmpil #-2147483648,%d0
    5588:	6606           	bnes 5590 <SAVE+0x1910>
    558a:	7000           	moveq #0,%d0
    558c:	3007           	movew %d7,%d0
    558e:	6004           	bras 5594 <SAVE+0x1914>
    5590:	7000           	moveq #0,%d0
    5592:	1007           	moveb %d7,%d0
    5594:	2e2e fffc      	movel %fp@(-4),%d7
    5598:	4e5e           	unlk %fp
    559a:	4e75           	rts
    559c:	4e56 fffc      	linkw %fp,#-4
    55a0:	2e87           	movel %d7,%sp@
    55a2:	2e2e 0008      	movel %fp@(8),%d7
    55a6:	0807 001f      	btst #31,%d7
    55aa:	6610           	bnes 55bc <SAVE+0x193c>
    55ac:	0287 00ff ffff 	andil #16777215,%d7
    55b2:	6748           	beqs 55fc <SAVE+0x197c>
    55b4:	0c87 00ff ffff 	cmpil #16777215,%d7
    55ba:	603e           	bras 55fa <SAVE+0x197a>
    55bc:	2007           	movel %d7,%d0
    55be:	0280 c000 0000 	andil #-1073741824,%d0
    55c4:	0c80 8000 0000 	cmpil #-2147483648,%d0
    55ca:	6610           	bnes 55dc <SAVE+0x195c>
    55cc:	0287 0000 ffff 	andil #65535,%d7
    55d2:	6728           	beqs 55fc <SAVE+0x197c>
    55d4:	0c87 0000 ffff 	cmpil #65535,%d7
    55da:	601e           	bras 55fa <SAVE+0x197a>
    55dc:	2007           	movel %d7,%d0
    55de:	0280 c000 0000 	andil #-1073741824,%d0
    55e4:	0c80 c000 0000 	cmpil #-1073741824,%d0
    55ea:	6616           	bnes 5602 <SAVE+0x1982>
    55ec:	0287 0000 00ff 	andil #255,%d7
    55f2:	6708           	beqs 55fc <SAVE+0x197c>
    55f4:	0c87 0000 00ff 	cmpil #255,%d7
    55fa:	6604           	bnes 5600 <SAVE+0x1980>
    55fc:	7001           	moveq #1,%d0
    55fe:	6002           	bras 5602 <SAVE+0x1982>
    5600:	4280           	clrl %d0
    5602:	2e2e fffc      	movel %fp@(-4),%d7
    5606:	4e5e           	unlk %fp
    5608:	4e75           	rts
    560a:	4e56 fff0      	linkw %fp,#-16
    560e:	48d7 20e0      	moveml %d5-%d7/%a5,%sp@
    5612:	3e2e 000e      	movew %fp@(14),%d7
    5616:	2a6e 0008      	moveal %fp@(8),%a5
    561a:	7c00           	moveq #0,%d6
    561c:	2a3c 0001 0000 	movel #65536,%d5
    5622:	e24f           	lsrw #1,%d7
    5624:	600e           	bras 5634 <SAVE+0x19b4>
    5626:	7000           	moveq #0,%d0
    5628:	301d           	movew %a5@+,%d0
    562a:	dc80           	addl %d0,%d6
    562c:	bc85           	cmpl %d5,%d6
    562e:	6504           	bcss 5634 <SAVE+0x19b4>
    5630:	9c85           	subl %d5,%d6
    5632:	5286           	addql #1,%d6
    5634:	51cf fff0      	dbf %d7,5626 <SAVE+0x19a6>
    5638:	2006           	movel %d6,%d0
    563a:	4680           	notl %d0
    563c:	4cee 20e0 fff0 	moveml %fp@(-16),%d5-%d7/%a5
    5642:	4e5e           	unlk %fp
    5644:	4e75           	rts
    5646:	4e56 0000      	linkw %fp,#0
    564a:	7000           	moveq #0,%d0
    564c:	102e 000b      	moveb %fp@(11),%d0
    5650:	2f00           	movel %d0,%sp@-
    5652:	7000           	moveq #0,%d0
    5654:	102e 000a      	moveb %fp@(10),%d0
    5658:	2f00           	movel %d0,%sp@-
    565a:	7000           	moveq #0,%d0
    565c:	102e 0009      	moveb %fp@(9),%d0
    5660:	2f00           	movel %d0,%sp@-
    5662:	7000           	moveq #0,%d0
    5664:	102e 0008      	moveb %fp@(8),%d0
    5668:	2f00           	movel %d0,%sp@-
    566a:	4879 000a 70bd 	pea a70bd <_etherbroadcastaddr+0x97>
    5670:	2079 0fef 0084 	moveal fef0084 <_end+0xfe34a70>,%a0
    5676:	4e90           	jsr %a0@
    5678:	4fef 0014      	lea %sp@(20),%sp
    567c:	4e5e           	unlk %fp
    567e:	4e75           	rts
    5680:	4e56 fffc      	linkw %fp,#-4
    5684:	2e8d           	movel %a5,%sp@
    5686:	2a6e 0008      	moveal %fp@(8),%a5
    568a:	7000           	moveq #0,%d0
    568c:	102d 0005      	moveb %a5@(5),%d0
    5690:	2f00           	movel %d0,%sp@-
    5692:	7000           	moveq #0,%d0
    5694:	102d 0004      	moveb %a5@(4),%d0
    5698:	2f00           	movel %d0,%sp@-
    569a:	7000           	moveq #0,%d0
    569c:	102d 0003      	moveb %a5@(3),%d0
    56a0:	2f00           	movel %d0,%sp@-
    56a2:	7000           	moveq #0,%d0
    56a4:	102d 0002      	moveb %a5@(2),%d0
    56a8:	2f00           	movel %d0,%sp@-
    56aa:	7000           	moveq #0,%d0
    56ac:	102d 0001      	moveb %a5@(1),%d0
    56b0:	2f00           	movel %d0,%sp@-
    56b2:	7000           	moveq #0,%d0
    56b4:	1015           	moveb %a5@,%d0
    56b6:	2f00           	movel %d0,%sp@-
    56b8:	4879 000a 70ca 	pea a70ca <_etherbroadcastaddr+0xa4>
    56be:	2079 0fef 0084 	moveal fef0084 <_end+0xfe34a70>,%a0
    56c4:	4e90           	jsr %a0@
    56c6:	4fef 001c      	lea %sp@(28),%sp
    56ca:	2a6e fffc      	moveal %fp@(-4),%a5
    56ce:	4e5e           	unlk %fp
    56d0:	4e75           	rts
    56d2:	0000 206f      	orib #111,%d0
    56d6:	0004 4e7a      	orib #122,%d4
    56da:	9801           	subb %d1,%d4
    56dc:	2229 0008      	movel %a1@(8),%d1
    56e0:	237c 000a 5702 	movel #677634,%a1@(8)
    56e6:	0008 
    56e8:	224f           	moveal %sp,%a1
    56ea:	2008           	movel %a0,%d0
    56ec:	0800 0000      	btst #0,%d0
    56f0:	6600 0010      	bnew 5702 <SAVE+0x1a82>
    56f4:	7000           	moveq #0,%d0
    56f6:	3010           	movew %a0@,%d0
    56f8:	4e7a 9801      	movec %vbr,%a1
    56fc:	2341 0008      	movel %d1,%a1@(8)
    5700:	4e75           	rts
    5702:	2e49           	moveal %a1,%sp
    5704:	70ff           	moveq #-1,%d0
    5706:	6000 fff0      	braw 56f8 <SAVE+0x1a78>
    570a:	206f 0004      	moveal %sp@(4),%a0
    570e:	4e7a 9801      	movec %vbr,%a1
    5712:	2229 0008      	movel %a1@(8),%d1
    5716:	237c 000a 5702 	movel #677634,%a1@(8)
    571c:	0008 
    571e:	224f           	moveal %sp,%a1
    5720:	10af 000b      	moveb %sp@(11),%a0@
    5724:	7000           	moveq #0,%d0
    5726:	6000 ffd0      	braw 56f8 <SAVE+0x1a78>
    572a:	206f 0004      	moveal %sp@(4),%a0
    572e:	4e7a 9801      	movec %vbr,%a1
    5732:	2229 0008      	movel %a1@(8),%d1
    5736:	237c 000a 5702 	movel #677634,%a1@(8)
    573c:	0008 
    573e:	224f           	moveal %sp,%a1
    5740:	30af 000a      	movew %sp@(10),%a0@
    5744:	7000           	moveq #0,%d0
    5746:	6000 ffb0      	braw 56f8 <SAVE+0x1a78>
    574a:	0000 4e56      	orib #86,%d0
    574e:	fff0           	.short 0xfff0
    5750:	48d7 30c0      	moveml %d6-%d7/%a4-%a5,%sp@
    5754:	2a6e 0008      	moveal %fp@(8),%a5
    5758:	7c00           	moveq #0,%d6
    575a:	0c6d dabe 01fc 	cmpiw #-9538,%a5@(508)
    5760:	6704           	beqs 5766 <SAVE+0x1ae6>
    5762:	7001           	moveq #1,%d0
    5764:	6034           	bras 579a <SAVE+0x1b1a>
    5766:	2e3c 0000 0100 	movel #256,%d7
    576c:	284d           	moveal %a5,%a4
    576e:	6006           	bras 5776 <SAVE+0x1af6>
    5770:	301c           	movew %a4@+,%d0
    5772:	48c0           	extl %d0
    5774:	b186           	eorl %d0,%d6
    5776:	51cf fff8      	dbf %d7,5770 <SAVE+0x1af0>
    577a:	4247           	clrw %d7
    577c:	5387           	subql #1,%d7
    577e:	64f0           	bccs 5770 <SAVE+0x1af0>
    5780:	4a86           	tstl %d6
    5782:	6714           	beqs 5798 <SAVE+0x1b18>
    5784:	4879 000a 710c 	pea a710c <_msg_nolabel+0x2c>
    578a:	2079 0fef 0084 	moveal fef0084 <_end+0xfe34a70>,%a0
    5790:	4e90           	jsr %a0@
    5792:	584f           	addqw #4,%sp
    5794:	7001           	moveq #1,%d0
    5796:	6002           	bras 579a <SAVE+0x1b1a>
    5798:	7000           	moveq #0,%d0
    579a:	4cee 30c0 fff0 	moveml %fp@(-16),%d6-%d7/%a4-%a5
    57a0:	4e5e           	unlk %fp
    57a2:	4e75           	rts
    57a4:	4e56 fff4      	linkw %fp,#-12
    57a8:	48d7 00c0      	moveml %d6-%d7,%sp@
    57ac:	2f2e 0010      	movel %fp@(16),%sp@-
    57b0:	2f2e 000c      	movel %fp@(12),%sp@-
    57b4:	206e 0008      	moveal %fp@(8),%a0
    57b8:	4e90           	jsr %a0@
    57ba:	504f           	addqw #8,%sp
    57bc:	2e00           	movel %d0,%d7
    57be:	6d78           	blts 5838 <SAVE+0x1bb8>
    57c0:	4a87           	tstl %d7
    57c2:	6706           	beqs 57ca <SAVE+0x1b4a>
    57c4:	7001           	moveq #1,%d0
    57c6:	6000 00aa      	braw 5872 <SAVE+0x1bf2>
    57ca:	2c3c 00f4 2400 	movel #16000000,%d6
    57d0:	2239 000a 5da6 	movel a5da6 <_cpudelay>,%d1
    57d6:	e2a6           	asrl %d1,%d6
    57d8:	5386           	subql #1,%d6
    57da:	6efc           	bgts 57d8 <SAVE+0x1b58>
    57dc:	2f2e 0010      	movel %fp@(16),%sp@-
    57e0:	2f2e 000c      	movel %fp@(12),%sp@-
    57e4:	206e 0008      	moveal %fp@(8),%a0
    57e8:	4e90           	jsr %a0@
    57ea:	504f           	addqw #8,%sp
    57ec:	2e00           	movel %d0,%d7
    57ee:	6d48           	blts 5838 <SAVE+0x1bb8>
    57f0:	4a87           	tstl %d7
    57f2:	664c           	bnes 5840 <SAVE+0x1bc0>
    57f4:	2079 0fef 001c 	moveal fef001c <_end+0xfe34a08>,%a0
    57fa:	4e90           	jsr %a0@
    57fc:	7eff           	moveq #-1,%d7
    57fe:	b087           	cmpl %d7,%d0
    5800:	66f2           	bnes 57f4 <SAVE+0x1b74>
    5802:	4879 000a 711c 	pea a711c <_msg_spinup>
    5808:	2079 0fef 0084 	moveal fef0084 <_end+0xfe34a70>,%a0
    580e:	4e90           	jsr %a0@
    5810:	584f           	addqw #4,%sp
    5812:	2079 0fef 009c 	moveal fef009c <_end+0xfe34a88>,%a0
    5818:	2010           	movel %a0@,%d0
    581a:	0680 0002 bf20 	addil #180000,%d0
    5820:	2d40 fffc      	movel %d0,%fp@(-4)
    5824:	2f2e 0010      	movel %fp@(16),%sp@-
    5828:	2f2e 000c      	movel %fp@(12),%sp@-
    582c:	206e 0008      	moveal %fp@(8),%a0
    5830:	4e90           	jsr %a0@
    5832:	504f           	addqw #8,%sp
    5834:	2e00           	movel %d0,%d7
    5836:	6c04           	bges 583c <SAVE+0x1bbc>
    5838:	2007           	movel %d7,%d0
    583a:	6036           	bras 5872 <SAVE+0x1bf2>
    583c:	4a87           	tstl %d7
    583e:	6704           	beqs 5844 <SAVE+0x1bc4>
    5840:	7002           	moveq #2,%d0
    5842:	602e           	bras 5872 <SAVE+0x1bf2>
    5844:	2079 0fef 001c 	moveal fef001c <_end+0xfe34a08>,%a0
    584a:	4e90           	jsr %a0@
    584c:	7eff           	moveq #-1,%d7
    584e:	b087           	cmpl %d7,%d0
    5850:	661e           	bnes 5870 <SAVE+0x1bf0>
    5852:	2079 0fef 009c 	moveal fef009c <_end+0xfe34a88>,%a0
    5858:	2010           	movel %a0@,%d0
    585a:	b0ae fffc      	cmpl %fp@(-4),%d0
    585e:	6fc4           	bles 5824 <SAVE+0x1ba4>
    5860:	4879 000a 7198 	pea a7198 <_msg_noctlr+0x1c>
    5866:	2079 0fef 0084 	moveal fef0084 <_end+0xfe34a70>,%a0
    586c:	4e90           	jsr %a0@
    586e:	584f           	addqw #4,%sp
    5870:	7000           	moveq #0,%d0
    5872:	4cee 00c0 fff4 	moveml %fp@(-12),%d6-%d7
    5878:	4e5e           	unlk %fp
    587a:	4e75           	rts
    587c:	203c ffff ffff 	movel #-1,%d0
    5882:	4e75           	rts
    5884:	4e56 fdfc      	linkw %fp,#-516
    5888:	2e8d           	movel %a5,%sp@
    588a:	206e 0008      	moveal %fp@(8),%a0
    588e:	2a68 0006      	moveal %a0@(6),%a5
    5892:	4878 0a9a      	pea a9a <RST+0x95e>
    5896:	4855           	pea %a5@
    5898:	4eb9 000a 4f44 	jsr a4f44 <_bzero>
    589e:	504f           	addqw #8,%sp
    58a0:	486d 0446      	pea %a5@(1094)
    58a4:	486d 0a86      	pea %a5@(2694)
    58a8:	2f2e 0008      	movel %fp@(8),%sp@-
    58ac:	4eb9 000a 5030 	jsr a5030 <_inet_init>
    58b2:	4fef 000c      	lea %sp@(12),%sp
    58b6:	41ed 0a86      	lea %a5@(2694),%a0
    58ba:	2b50 001e      	movel %a0@,%a5@(30)
    58be:	206e 0008      	moveal %fp@(8),%a0
    58c2:	2b68 000e 0022 	movel %a0@(14),%a5@(34)
    58c8:	2f2d 001e      	movel %a5@(30),%sp@-
    58cc:	4eb9 000a 5560 	jsr a5560 <_in_lnaof>
    58d2:	584f           	addqw #4,%sp
    58d4:	222d 001e      	movel %a5@(30),%d1
    58d8:	9280           	subl %d0,%d1
    58da:	d3ad 0022      	addl %d1,%a5@(34)
    58de:	72f6           	moveq #-10,%d1
    58e0:	2b41 0042      	movel %d1,%a5@(66)
    58e4:	2079 0fef 009c 	moveal fef009c <_end+0xfe34a88>,%a0
    58ea:	2a90           	movel %a0@,%a5@
    58ec:	022d ff0f 0012 	andib #15,%a5@(18)
    58f2:	002d 0040 0012 	orib #64,%a5@(18)
    58f8:	022d fff0 0012 	andib #-16,%a5@(18)
    58fe:	002d 0005 0012 	orib #5,%a5@(18)
    5904:	3b7c 0030 0014 	movew #48,%a5@(20)
    590a:	1b7c 0004 001a 	moveb #4,%a5@(26)
    5910:	1b7c 004d 001b 	moveb #77,%a5@(27)
    5916:	1b7c 0009 0026 	moveb #9,%a5@(38)
    591c:	206e 0008      	moveal %fp@(8),%a0
    5920:	2028 0012      	movel %a0@(18),%d0
    5924:	1b40 0027      	moveb %d0,%a5@(39)
    5928:	1039 000a 71d5 	moveb a71d5 <_ndbootdev+0x1>,%d0
    592e:	b12d 0027      	eorb %d0,%a5@(39)
    5932:	2b7c 0000 0400 	movel #1024,%a5@(50)
    5938:	0032 
    593a:	486e fe00      	pea %fp@(-512)
    593e:	42a7           	clrl %sp@-
    5940:	2f2e 0008      	movel %fp@(8),%sp@-
    5944:	4eb9 000a 59cc 	jsr a59cc <_ndread>
    594a:	4fef 000c      	lea %sp@(12),%sp
    594e:	4a80           	tstl %d0
    5950:	6704           	beqs 5956 <SAVE+0x1cd6>
    5952:	70ff           	moveq #-1,%d0
    5954:	6002           	bras 5958 <SAVE+0x1cd8>
    5956:	7000           	moveq #0,%d0
    5958:	2a6e fdfc      	moveal %fp@(-516),%a5
    595c:	4e5e           	unlk %fp
    595e:	4e75           	rts
    5960:	4e56 fff0      	linkw %fp,#-16
    5964:	2e8d           	movel %a5,%sp@
    5966:	2a6e 0008      	moveal %fp@(8),%a5
    596a:	2d6d 0026 fffc 	movel %a5@(38),%fp@(-4)
    5970:	2d6d 001e fff8 	movel %a5@(30),%fp@(-8)
    5976:	2d6d 0022 fff4 	movel %a5@(34),%fp@(-12)
    597c:	0cae 0000 0002 	cmpil #2,%fp@(12)
    5982:	000c 
    5984:	6630           	bnes 59b6 <SAVE+0x1d36>
    5986:	7000           	moveq #0,%d0
    5988:	603a           	bras 59c4 <SAVE+0x1d44>
    598a:	2f2e fff4      	movel %fp@(-12),%sp@-
    598e:	2f2e fff8      	movel %fp@(-8),%sp@-
    5992:	4855           	pea %a5@
    5994:	4eb9 000a 59cc 	jsr a59cc <_ndread>
    599a:	4fef 000c      	lea %sp@(12),%sp
    599e:	4a80           	tstl %d0
    59a0:	661a           	bnes 59bc <SAVE+0x1d3c>
    59a2:	52ae fff8      	addql #1,%fp@(-8)
    59a6:	06ae 0000 0200 	addil #512,%fp@(-12)
    59ac:	fff4 
    59ae:	04ae 0000 0200 	subil #512,%fp@(-4)
    59b4:	fffc 
    59b6:	4aae fffc      	tstl %fp@(-4)
    59ba:	6ece           	bgts 598a <SAVE+0x1d0a>
    59bc:	202d 0026      	movel %a5@(38),%d0
    59c0:	90ae fffc      	subl %fp@(-4),%d0
    59c4:	2a6e fff0      	moveal %fp@(-16),%a5
    59c8:	4e5e           	unlk %fp
    59ca:	4e75           	rts
    59cc:	4e56 fff0      	linkw %fp,#-16
    59d0:	48d7 30c0      	moveml %d6-%d7/%a4-%a5,%sp@
    59d4:	206e 0008      	moveal %fp@(8),%a0
    59d8:	2a68 0006      	moveal %a0@(6),%a5
    59dc:	49ed 0046      	lea %a5@(70),%a4
    59e0:	202e 000c      	movel %fp@(12),%d0
    59e4:	b0ad 0042      	cmpl %a5@(66),%d0
    59e8:	6700 009e      	beqw 5a88 <SAVE+0x1e08>
    59ec:	202d 0042      	movel %a5@(66),%d0
    59f0:	5280           	addql #1,%d0
    59f2:	b0ae 000c      	cmpl %fp@(12),%d0
    59f6:	6608           	bnes 5a00 <SAVE+0x1d80>
    59f8:	49ec 0200      	lea %a4@(512),%a4
    59fc:	6000 008a      	braw 5a88 <SAVE+0x1e08>
    5a00:	2b6e 000c 002e 	movel %fp@(12),%a5@(46)
    5a06:	5295           	addql #1,%a5@
    5a08:	2b55 002a      	movel %a5@,%a5@(42)
    5a0c:	7c00           	moveq #0,%d6
    5a0e:	486d 0446      	pea %a5@(1094)
    5a12:	486d 0a86      	pea %a5@(2694)
    5a16:	4878 003e      	pea 3e <CACR_CLEAR+0x36>
    5a1a:	486d 0004      	pea %a5@(4)
    5a1e:	2f2e 0008      	movel %fp@(8),%sp@-
    5a22:	4eb9 000a 507c 	jsr a507c <_ip_output>
    5a28:	4fef 0014      	lea %sp@(20),%sp
    5a2c:	4a80           	tstl %d0
    5a2e:	6708           	beqs 5a38 <SAVE+0x1db8>
    5a30:	4879 000a 71d8 	pea a71d8 <_ndbootdev+0x4>
    5a36:	6016           	bras 5a4e <SAVE+0x1dce>
    5a38:	2f2e 0008      	movel %fp@(8),%sp@-
    5a3c:	4eb9 000a 5aa8 	jsr a5aa8 <_ndrecv>
    5a42:	584f           	addqw #4,%sp
    5a44:	3e00           	movew %d0,%d7
    5a46:	6c18           	bges 5a60 <SAVE+0x1de0>
    5a48:	4879 000a 71db 	pea a71db <_ndbootdev+0x7>
    5a4e:	2079 0fef 0084 	moveal fef0084 <_end+0xfe34a70>,%a0
    5a54:	4e90           	jsr %a0@
    5a56:	584f           	addqw #4,%sp
    5a58:	5246           	addqw #1,%d6
    5a5a:	0c46 01f4      	cmpiw #500,%d6
    5a5e:	6dae           	blts 5a0e <SAVE+0x1d8e>
    5a60:	0c46 01f4      	cmpiw #500,%d6
    5a64:	6614           	bnes 5a7a <SAVE+0x1dfa>
    5a66:	4879 000a 71de 	pea a71de <_ndbootdev+0xa>
    5a6c:	2079 0fef 0084 	moveal fef0084 <_end+0xfe34a70>,%a0
    5a72:	4e90           	jsr %a0@
    5a74:	584f           	addqw #4,%sp
    5a76:	70ff           	moveq #-1,%d0
    5a78:	6024           	bras 5a9e <SAVE+0x1e1e>
    5a7a:	4a47           	tstw %d7
    5a7c:	6604           	bnes 5a82 <SAVE+0x1e02>
    5a7e:	70ff           	moveq #-1,%d0
    5a80:	601c           	bras 5a9e <SAVE+0x1e1e>
    5a82:	2b6e 000c 0042 	movel %fp@(12),%a5@(66)
    5a88:	4878 0200      	pea 200 <RST+0xc4>
    5a8c:	2f2e 0010      	movel %fp@(16),%sp@-
    5a90:	4854           	pea %a4@
    5a92:	4eb9 000a 4f6a 	jsr a4f6a <_bcopy>
    5a98:	4fef 000c      	lea %sp@(12),%sp
    5a9c:	7000           	moveq #0,%d0
    5a9e:	4cee 30c0 fff0 	moveml %fp@(-16),%d6-%d7/%a4-%a5
    5aa4:	4e5e           	unlk %fp
    5aa6:	4e75           	rts
    5aa8:	4e56 ffe8      	linkw %fp,#-24
    5aac:	48d7 38c0      	moveml %d6-%d7/%a3-%a5,%sp@
    5ab0:	206e 0008      	moveal %fp@(8),%a0
    5ab4:	2a68 0006      	moveal %a0@(6),%a5
    5ab8:	2079 0fef 009c 	moveal fef009c <_end+0xfe34a88>,%a0
    5abe:	2e10           	movel %a0@,%d7
    5ac0:	0687 0000 07d0 	addil #2000,%d7
    5ac6:	2079 0fef 009c 	moveal fef009c <_end+0xfe34a88>,%a0
    5acc:	be90           	cmpl %a0@,%d7
    5ace:	6c44           	bges 5b14 <SAVE+0x1e94>
    5ad0:	2f2e 0008      	movel %fp@(8),%sp@-
    5ad4:	206e 0008      	moveal %fp@(8),%a0
    5ad8:	2f28 0006      	movel %a0@(6),%sp@-
    5adc:	2068 002a      	moveal %a0@(42),%a0
    5ae0:	2068 0008      	moveal %a0@(8),%a0
    5ae4:	4e90           	jsr %a0@
    5ae6:	504f           	addqw #8,%sp
    5ae8:	70ff           	moveq #-1,%d0
    5aea:	6000 0116      	braw 5c02 <SAVE+0x1f82>
    5aee:	2f2c 001c      	movel %a4@(28),%sp@-
    5af2:	102c 0016      	moveb %a4@(22),%d0
    5af6:	4880           	extw %d0
    5af8:	48c0           	extl %d0
    5afa:	2f00           	movel %d0,%sp@-
    5afc:	4879 000a 71fe 	pea a71fe <_ndbootdev+0x2a>
    5b02:	2079 0fef 0084 	moveal fef0084 <_end+0xfe34a70>,%a0
    5b08:	4e90           	jsr %a0@
    5b0a:	4fef 000c      	lea %sp@(12),%sp
    5b0e:	7000           	moveq #0,%d0
    5b10:	6000 00f0      	braw 5c02 <SAVE+0x1f82>
    5b14:	486d 0a86      	pea %a5@(2694)
    5b18:	486d 0446      	pea %a5@(1094)
    5b1c:	2f2e 0008      	movel %fp@(8),%sp@-
    5b20:	4eb9 000a 5122 	jsr a5122 <_ip_input>
    5b26:	4fef 000c      	lea %sp@(12),%sp
    5b2a:	0c40 003e      	cmpiw #62,%d0
    5b2e:	6d96           	blts 5ac6 <SAVE+0x1e46>
    5b30:	47ed 0446      	lea %a5@(1094),%a3
    5b34:	49eb 000e      	lea %a3@(14),%a4
    5b38:	2f2d 0022      	movel %a5@(34),%sp@-
    5b3c:	4eb9 000a 5560 	jsr a5560 <_in_lnaof>
    5b42:	584f           	addqw #4,%sp
    5b44:	4a80           	tstl %d0
    5b46:	6724           	beqs 5b6c <SAVE+0x1eec>
    5b48:	2f2c 000c      	movel %a4@(12),%sp@-
    5b4c:	4eb9 000a 5560 	jsr a5560 <_in_lnaof>
    5b52:	584f           	addqw #4,%sp
    5b54:	2d40 fffc      	movel %d0,%fp@(-4)
    5b58:	2f2d 0022      	movel %a5@(34),%sp@-
    5b5c:	4eb9 000a 5560 	jsr a5560 <_in_lnaof>
    5b62:	584f           	addqw #4,%sp
    5b64:	b0ae fffc      	cmpl %fp@(-4),%d0
    5b68:	6600 ff5c      	bnew 5ac6 <SAVE+0x1e46>
    5b6c:	0c2c 004d 0009 	cmpib #77,%a4@(9)
    5b72:	6600 ff52      	bnew 5ac6 <SAVE+0x1e46>
    5b76:	202c 0018      	movel %a4@(24),%d0
    5b7a:	b095           	cmpl %a5@,%d0
    5b7c:	6600 ff48      	bnew 5ac6 <SAVE+0x1e46>
    5b80:	0c2c 0003 0014 	cmpib #3,%a4@(20)
    5b86:	6700 ff66      	beqw 5aee <SAVE+0x1e6e>
    5b8a:	0c2c 0019 0014 	cmpib #25,%a4@(20)
    5b90:	6612           	bnes 5ba4 <SAVE+0x1f24>
    5b92:	0cac 0000 0400 	cmpil #1024,%a4@(44)
    5b98:	002c 
    5b9a:	6608           	bnes 5ba4 <SAVE+0x1f24>
    5b9c:	0c6c 0430 0002 	cmpiw #1072,%a4@(2)
    5ba2:	6704           	beqs 5ba8 <SAVE+0x1f28>
    5ba4:	70ff           	moveq #-1,%d0
    5ba6:	605a           	bras 5c02 <SAVE+0x1f82>
    5ba8:	2f2d 0022      	movel %a5@(34),%sp@-
    5bac:	4eb9 000a 559c 	jsr a559c <_in_broadaddr>
    5bb2:	584f           	addqw #4,%sp
    5bb4:	4a80           	tstl %d0
    5bb6:	6708           	beqs 5bc0 <SAVE+0x1f40>
    5bb8:	41ec 000c      	lea %a4@(12),%a0
    5bbc:	2b50 0022      	movel %a0@,%a5@(34)
    5bc0:	2015           	movel %a5@,%d0
    5bc2:	7e07           	moveq #7,%d7
    5bc4:	c087           	andl %d7,%d0
    5bc6:	6622           	bnes 5bea <SAVE+0x1f6a>
    5bc8:	2015           	movel %a5@,%d0
    5bca:	0800 0003      	btst #3,%d0
    5bce:	6708           	beqs 5bd8 <SAVE+0x1f58>
    5bd0:	203c 000a 7210 	movel #684560,%d0
    5bd6:	6006           	bras 5bde <SAVE+0x1f5e>
    5bd8:	203c 000a 7213 	movel #684563,%d0
    5bde:	2f00           	movel %d0,%sp@-
    5be0:	2079 0fef 0084 	moveal fef0084 <_end+0xfe34a70>,%a0
    5be6:	4e90           	jsr %a0@
    5be8:	584f           	addqw #4,%sp
    5bea:	4878 0400      	pea 400 <RST+0x2c4>
    5bee:	486d 0046      	pea %a5@(70)
    5bf2:	486d 0484      	pea %a5@(1156)
    5bf6:	4eb9 000a 4f6a 	jsr a4f6a <_bcopy>
    5bfc:	4fef 000c      	lea %sp@(12),%sp
    5c00:	7001           	moveq #1,%d0
    5c02:	4cee 38c0 ffe8 	moveml %fp@(-24),%d6-%d7/%a3-%a5
    5c08:	4e5e           	unlk %fp
    5c0a:	4e75           	rts
    5c0c:	206f 0004      	moveal %sp@(4),%a0
    5c10:	222f 0008      	movel %sp@(8),%d1
    5c14:	2f02           	movel %d2,%sp@-
    5c16:	4e7a 0000      	movec %sfc,%d0
    5c1a:	243c 0000 0003 	movel #3,%d2
    5c20:	4e7b 2000      	movec %d2,%sfc
    5c24:	43f8 0008      	lea 8 <CACR_CLEAR>,%a1
    5c28:	600a           	bras 5c34 <SAVE+0x1fb4>
    5c2a:	0e19 2000      	movesb %a1@+,%d2
    5c2e:	10c2           	moveb %d2,%a0@+
    5c30:	d2fc 07ff      	addaw #2047,%a1
    5c34:	51c9 fff4      	dbf %d1,5c2a <SAVE+0x1faa>
    5c38:	4e7b 0000      	movec %d0,%sfc
    5c3c:	241f           	movel %sp@+,%d2
    5c3e:	4e75           	rts
    5c40:	4e56 fff0      	linkw %fp,#-16
    5c44:	48d7 30c0      	moveml %d6-%d7/%a4-%a5,%sp@
    5c48:	2a6e 0008      	moveal %fp@(8),%a5
    5c4c:	286e 000c      	moveal %fp@(12),%a4
    5c50:	2e2e 0010      	movel %fp@(16),%d7
    5c54:	e287           	asrl #1,%d7
    5c56:	5287           	addql #1,%d7
    5c58:	6006           	bras 5c60 <SAVE+0x1fe0>
    5c5a:	101d           	moveb %a5@+,%d0
    5c5c:	18dd           	moveb %a5@+,%a4@+
    5c5e:	18c0           	moveb %d0,%a4@+
    5c60:	5387           	subql #1,%d7
    5c62:	1007           	moveb %d7,%d0
    5c64:	7c07           	moveq #7,%d6
    5c66:	c086           	andl %d6,%d0
    5c68:	66f0           	bnes 5c5a <SAVE+0x1fda>
    5c6a:	e687           	asrl #3,%d7
    5c6c:	6030           	bras 5c9e <SAVE+0x201e>
    5c6e:	101d           	moveb %a5@+,%d0
    5c70:	18dd           	moveb %a5@+,%a4@+
    5c72:	18c0           	moveb %d0,%a4@+
    5c74:	101d           	moveb %a5@+,%d0
    5c76:	18dd           	moveb %a5@+,%a4@+
    5c78:	18c0           	moveb %d0,%a4@+
    5c7a:	101d           	moveb %a5@+,%d0
    5c7c:	18dd           	moveb %a5@+,%a4@+
    5c7e:	18c0           	moveb %d0,%a4@+
    5c80:	101d           	moveb %a5@+,%d0
    5c82:	18dd           	moveb %a5@+,%a4@+
    5c84:	18c0           	moveb %d0,%a4@+
    5c86:	101d           	moveb %a5@+,%d0
    5c88:	18dd           	moveb %a5@+,%a4@+
    5c8a:	18c0           	moveb %d0,%a4@+
    5c8c:	101d           	moveb %a5@+,%d0
    5c8e:	18dd           	moveb %a5@+,%a4@+
    5c90:	18c0           	moveb %d0,%a4@+
    5c92:	101d           	moveb %a5@+,%d0
    5c94:	18dd           	moveb %a5@+,%a4@+
    5c96:	18c0           	moveb %d0,%a4@+
    5c98:	101d           	moveb %a5@+,%d0
    5c9a:	18dd           	moveb %a5@+,%a4@+
    5c9c:	18c0           	moveb %d0,%a4@+
    5c9e:	5387           	subql #1,%d7
    5ca0:	6ccc           	bges 5c6e <SAVE+0x1fee>
    5ca2:	4cee 30c0 fff0 	moveml %fp@(-16),%d6-%d7/%a4-%a5
    5ca8:	4e5e           	unlk %fp
    5caa:	4e75           	rts
    5cac:	4e56 fff4      	linkw %fp,#-12
    5cb0:	48d7 3080      	moveml %d7/%a4-%a5,%sp@
    5cb4:	2a6e 0008      	moveal %fp@(8),%a5
    5cb8:	286e 000c      	moveal %fp@(12),%a4
    5cbc:	2e2e 0010      	movel %fp@(16),%d7
    5cc0:	51cf 0014      	dbf %d7,5cd6 <SAVE+0x2056>
    5cc4:	4247           	clrw %d7
    5cc6:	5387           	subql #1,%d7
    5cc8:	640c           	bccs 5cd6 <SAVE+0x2056>
    5cca:	7000           	moveq #0,%d0
    5ccc:	4cee 3080 fff4 	moveml %fp@(-12),%d7/%a4-%a5
    5cd2:	4e5e           	unlk %fp
    5cd4:	4e75           	rts
    5cd6:	bb0c           	cmpmb %a4@+,%a5@+
    5cd8:	67e6           	beqs 5cc0 <SAVE+0x2040>
    5cda:	7001           	moveq #1,%d0
    5cdc:	60ee           	bras 5ccc <SAVE+0x204c>
    5cde:	0000 2f02      	orib #2,%d0
    5ce2:	2400           	movel %d0,%d2
    5ce4:	8481           	orl %d1,%d2
    5ce6:	4242           	clrw %d2
    5ce8:	4a82           	tstl %d2
    5cea:	6606           	bnes 5cf2 <SAVE+0x2072>
    5cec:	c0c1           	muluw %d1,%d0
    5cee:	241f           	movel %sp@+,%d2
    5cf0:	4e75           	rts
    5cf2:	2f03           	movel %d3,%sp@-
    5cf4:	4a80           	tstl %d0
    5cf6:	674a           	beqs 5d42 <SAVE+0x20c2>
    5cf8:	4a81           	tstl %d1
    5cfa:	6746           	beqs 5d42 <SAVE+0x20c2>
    5cfc:	6020           	bras 5d1e <SAVE+0x209e>
    5cfe:	2f02           	movel %d2,%sp@-
    5d00:	2400           	movel %d0,%d2
    5d02:	8481           	orl %d1,%d2
    5d04:	4242           	clrw %d2
    5d06:	4a82           	tstl %d2
    5d08:	6606           	bnes 5d10 <SAVE+0x2090>
    5d0a:	c0c1           	muluw %d1,%d0
    5d0c:	241f           	movel %sp@+,%d2
    5d0e:	4e75           	rts
    5d10:	2f03           	movel %d3,%sp@-
    5d12:	4a80           	tstl %d0
    5d14:	6d34           	blts 5d4a <SAVE+0x20ca>
    5d16:	672a           	beqs 5d42 <SAVE+0x20c2>
    5d18:	4a81           	tstl %d1
    5d1a:	6d3a           	blts 5d56 <SAVE+0x20d6>
    5d1c:	6724           	beqs 5d42 <SAVE+0x20c2>
    5d1e:	3400           	movew %d0,%d2
    5d20:	c4c1           	muluw %d1,%d2
    5d22:	3600           	movew %d0,%d3
    5d24:	4240           	clrw %d0
    5d26:	4840           	swap %d0
    5d28:	6702           	beqs 5d2c <SAVE+0x20ac>
    5d2a:	c0c1           	muluw %d1,%d0
    5d2c:	4841           	swap %d1
    5d2e:	4a41           	tstw %d1
    5d30:	6704           	beqs 5d36 <SAVE+0x20b6>
    5d32:	c6c1           	muluw %d1,%d3
    5d34:	d083           	addl %d3,%d0
    5d36:	4840           	swap %d0
    5d38:	4240           	clrw %d0
    5d3a:	d082           	addl %d2,%d0
    5d3c:	261f           	movel %sp@+,%d3
    5d3e:	241f           	movel %sp@+,%d2
    5d40:	4e75           	rts
    5d42:	7000           	moveq #0,%d0
    5d44:	261f           	movel %sp@+,%d3
    5d46:	241f           	movel %sp@+,%d2
    5d48:	4e75           	rts
    5d4a:	4480           	negl %d0
    5d4c:	4a81           	tstl %d1
    5d4e:	6e08           	bgts 5d58 <SAVE+0x20d8>
    5d50:	67f0           	beqs 5d42 <SAVE+0x20c2>
    5d52:	4481           	negl %d1
    5d54:	60c8           	bras 5d1e <SAVE+0x209e>
    5d56:	4481           	negl %d1
    5d58:	3400           	movew %d0,%d2
    5d5a:	c4c1           	muluw %d1,%d2
    5d5c:	3600           	movew %d0,%d3
    5d5e:	4840           	swap %d0
    5d60:	c0c1           	muluw %d1,%d0
    5d62:	4841           	swap %d1
    5d64:	c6c1           	muluw %d1,%d3
    5d66:	d083           	addl %d3,%d0
    5d68:	4840           	swap %d0
    5d6a:	4240           	clrw %d0
    5d6c:	d082           	addl %d2,%d0
    5d6e:	4480           	negl %d0
    5d70:	261f           	movel %sp@+,%d3
    5d72:	241f           	movel %sp@+,%d2
    5d74:	4e75           	rts
	...
